2286	E11 ECAT M11 M12 MCAT	recov recov recov recov excit excit bring mexic mexic mexic mexic mexic mexic mexic mexic mexic mexic market market market market market market market life emerg evident evident econom econom econom econom back back back track buzz tuesday tuesday tuesday tuesday tuesday stock stock stock clos record record high high high interest interest interest interest rate rate rate rate rate rate rate month low low low stag begin year ahead term term term term fundament fundament fundament matthew hickm lehm brother york point point point hist hist fall fall fall view etch mind invest cris decemb free peso peso peso stubborn week week quart gross domest domest produc report percent percent percent strong strong strong anal anal expect expect expect expect expect govern treasur bill cete cete second second fell level jan main pric index rally volum frenz million shar confound strength end long long contract drop benchmark auction remain stead feder reserv refrain rais short attract off robust return foreign grow grow confid victim crumbl focus lar schonand head head research research santand city city continu declin inflat gdp growth figur lack upward move move fact play felix boni boni jame capel posit technic uncertain argentin put neighbor brazil risk south americ wary lot hyp export led patch consum venge corpor earn justif run
2287	C24 CCAT	uruguay uruguay compan compan compan bring limit limit mexic capac capac grab market market market market small small small portion emerg rival econom gener motor motor motor ford volkswagen ag tuesday tuesday tuesday stock stock target clos specif segment desir vehicl vehicl vehicl interest applic facil facil dakot dakot dakot low compact begin countr countr year year year year year cherok cherok cherok cherok cherok construc cordob provinc schedul build grand grand start start start york april output site select roll line mid modest invest invest invest invest invest invest invest ultimat unit unit unit unit unit annual annual annual free free employ peopl larg complet knock kit kit ship produc produc produc produc stat stat percent meet bloc local requir decid dodg brand brand brand name canad detroit italian design vm cylind turbocharg model instal miniv sold million million million million million million million million million europ support open dana end end johnson control lear lear techn ppg industr increas stead decad area polit stabl rise buy pow off venezuel neon car financ grow commit made rose cent exchang growth growth play play argentin argentin argentin argentin argentin argentin brazil brazil brazil brazil brazil brazil brazil brazil risk south south south americ americ americ americ americ consum chrysl chrysl chrysl chrysl chrysl chrysl chrysl chrysl chrysl chrysl chrysl chrysl chrysl chrysl chrysl chrysl chrysl plan latin latin corp corp corp corp corp corp corp announc announc includ includ includ includ assembl assembl assembl assembl assembl plant plant plant plant plant plant plant plant plant pickup pickup truck truck truck truck diesel diesel diesel diesel engin engin engin engin expand expand jeep jeep jeep jeep jeep jeep built built built caut rebuild intern intern present project worth worth rough total total total suppl suppl suppl suppl major major major role automak automak automak automak glob strateg chairm robert eaton eaton eaton eaton don don intend intend make risky add add thom gale execut execut vice presid operat content content pace region region region solid opportun boost sale sale sale mercosur mercosur mercosur mercosur mercosur trad trad trad zone zone group paraguay paraguay
2288	C151 C15 CCAT E41 ECAT GCAT GJOB	spun stak compan compan compan compan compan compan compan compan compan nasdaq early market market tuesday stock clos month month year year year year roll invest modest unit annual peopl larg quart quart quart quart quart quart quart quart quart produc produc produc stat report report report percent percent expect expect expect expect expect expect million million million million million million million million million million million shar shar shar shar end drop increas financ made cent cent cent cent cent cent compuserv compuserv compuserv compuserv compuserv compuserv compuserv compuserv compuserv compuserv compuserv compuserv loss loss loss loss loss loss loss loss cut cut cut cut work work forc forc continu surpris declin declin fisc fisc fisc fisc fisc blam blam numb numb numb numb subscrib subscrib subscrib subscrib subscrib subscrib subscrib onlin onlin onlin onlin servic servic servic servic servic servic servic servic spend fami fami orient orient improv improv improv improv predict half half take step revital chief bob massey massey massey job part part cost cost cost program save americ basi columbus ohio base sell sell spry web brows trail simil netscap earn commun microsoft july july compar profit result result corp corp corp announc pretax charg includ includ includ post actual great wall street revenu revenu expand prev comment cancel exceed flag inform memb memb worldw niftyserv niftyserv joint ventur total japan japan found wow wow infrastructur hit due late version softwar need access make releas releas featur teen parent forecast rosy execut coupl aggress campaign fourth top mark licens advert fee electron commerc trad subsid tax prepar block
2289	C151 C15 CCAT	spun stak compan compan compan compan compan compan compan compan compan nasdaq early market market tuesday stock clos month month year year year year roll invest modest unit annual peopl larg quart quart quart quart quart quart quart quart quart produc produc produc stat report report report percent percent expect expect expect expect expect expect million million million million million million million million million million million shar shar shar shar end drop increas financ made cent cent cent cent cent cent compuserv compuserv compuserv compuserv compuserv compuserv compuserv compuserv compuserv compuserv compuserv compuserv loss loss loss loss loss loss loss loss cut cut cut cut work work forc forc continu surpris declin declin fisc fisc fisc fisc fisc blam blam numb numb numb numb subscrib subscrib subscrib subscrib subscrib subscrib subscrib onlin onlin onlin onlin servic servic servic servic servic servic servic servic spend fami fami orient orient improv improv improv improv predict half half take step revital chief bob massey massey massey job part part cost cost cost program save americ basi columbus ohio base sell sell spry web brows trail simil netscap earn commun microsoft july july compar profit result result corp corp corp announc pretax charg includ includ includ post actual great wall street revenu revenu expand prev comment cancel exceed flag inform memb memb worldw niftyserv niftyserv joint ventur total japan japan found wow wow infrastructur hit due late version softwar need access make releas releas featur teen parent forecast rosy execut coupl aggress campaign fourth top mark licens advert fee electron commerc trad subsid tax prepar block
2290	C11 C22 CCAT	compan compan limit planet planet planet planet planet hollywood hollywood hollywood hollywood hollywood hollywood launch credit credit credit credit card card card card dine feel movie movie star money arnold schwarzeneg them restaur restaur rate applic chain fast outlet festoon kitsch memorabl team william mor talent agent mbna bank wilmington del perk prefer roll seat edition shirt discount food merchandis annual annual join pop cultur ston magazin issu debt fun usual stat percent percent approv pay special introduc balanc transf cash brand advanc check orland florid off grow made spend part americ base includ intern don make fee
2291	M14 MCAT	compan compan limit limit limit market market market small small small emerg tuesday tuesday tuesday clos clos clos clos clos clos clos high high high high high low low low low countr countr year york york york point decemb decemb decemb peopl larg week week produc produc report anal anal anal govern cash fell fell fell fell level level hog hog hog hog hog hog hog hog hog tumbl cocoa cocoa cocoa cocoa cocoa cocoa pric pric pric pric pric pric index gain slaught slaught slaught slaught show show futur futur futur futur futur anticip anticip crop crop crop crop crop overse overse shrink end end end deliv pull contract contract contract coffee coffee coffee coffee crud crud crud oil oil oil monday gold gold edg increas increas increas increas commod commod bureau chicag mercantil mercantil august august august august rise buy buy buy pork pork pork pork pork belly belly belly finish respect daily daily pressur weak worry side rose focus cent cent cent cent cent cent cent cent cent cent cent cent import pack pack exchang exchang exchang exchang freedom head margin doug research harp brock assoc senior livestock pinch meat quick figur bid agricultur depart ago fact near improv cme cme pound pound pound pound take sharp sharp sharp transl sugar specul buoy new new updat ivory ivory coast coast estimat rang settl settl basi metric metric ton ton base ivorian problem ghan prelimin peg factor bar revis burst session chart chart day wide profit profit watch break resist inspir driv wednesday refin septemb septemb septemb septemb unlead gasolin gallon gallon heat barrel ounc suppl suppl suppl suppl suppl late add add forecast forecast mark trad
2292	M11 M12 M132 M13 M14 MCAT	early credit market market market market market market econom econom back back tuesday stock stock stock clos clos clos clos record record fast high high high high interest interest interest interest interest rate rate rate rate rate rate year year year term bank prefer york york york york york point point point point merchandis invest invest ston issu week quart quart quart quart report percent percent percent strong expect expect advanc treasur second fell fell gain pric index index rally rally volum overse million deliv shar shar crud crud end end end end oil oil monday monday gold gold drop edg commod stead stead stead mercantil feder feder reserv short short pressur weak weak foreign foreign grow import declin inflat growth depart fact fact fact sharp new put settl lot export led inspir announc septemb septemb heat barrel ounc blu blu blu blu chip chip chip chip fed fed fed fed held dollar dollar dollar dollar dollar dollar dollar june june june deficit deficit deficit bond bond chang dow dow dow jone aver aver throw set set set broad strateg strateg moderat polic polic afternoon unchang unchang unchang allow hurdl make ling fear add add surpr neutral richard crip leg presid mason wood walk pace hold hold amid sign slow slow boost keep sale independ sought trad trad trad trad trad stay fire approach nov congress elect recent hous retail small stall pare look rumor hard find indic spectacul joseph barthel fahnestock way liquid visibl safet stud composit currenc currenc climb climb yen yen yen yen gap shrank petroleum shortfal billion trend decreas amount good greg pearm line deal commercial de franc unit huge today bought slight germ yield lost britain fts stat surpass meet nikkei local open techn techn industr increas polit rise buy buy commit rose rose rose rose cent cent cent exchang exchang exchang exchang numb numb chief chief chief sell sell wall street japan japan japan late late mark mark mark commerc nasdaq
2293	C22 CCAT	compan compan compan compan early market market credit rival rival card tuesday stock stock money high rate month year year start york site billion fall roll line good annual free free free larg larg lost local anal expect requir introduc sprint sprint sprint sprint sprint sprint sprint sprint sprint sprint sprint sprint bill internet internet internet internet internet internet internet internet internet internet internet jump home fell mci mci kans mo big chunk busi busi busi busi busi busi exist telephon custom custom choos million million flat support support support unlimit hour end minim long long long maxim usag nation techn dist dist ve ve industr jim dod dod dod time time time avoid glitch hurt short press bet massick off off off off off colomb bear stearn ground dub passport provid provid side cent clock exchang comput network phon call offer offer offer bell city city city entry spark flur numb compet shockwav initial onlin onlin onlin navigat navigat servic servic servic servic servic servic servic servic servic servic servic servic search search explor move won fact fact host propriet serv resid take take rebat certif speed speed modem new kilobit dedicat mail part direct toll americ base web brows brows consum consum consum consum consum simil netscap netscap commun microsoft microsoft compar plan profit wide corp corp corp announc includ includ includ revenu major glob softwar softwar don access access access access access access access access access access access releas make vice presid operat operat region commerc
2294	E14 ECAT	wear mom levi levi strauss popul popul market draw lure portion portion tommy hilfig retail retail retail retail retail retail ralph back back back back back back back back back back back laur polo calvin target klein slung find clos hip hug high high high high high high bottom chain retr peac march outlet low low hot own dayton dayton year year year year hudson hudson clay ring necklac reminisc spokeswom susan eich eich york backpack clog zip amount mind good shirt shirt shirt discount discount discount discount merchandis annual peopl larg larg percent percent percent percent percent percent percent percent percent percent percent percent percent special decid brand brand jump design big show increas short rise buy buy confid import import import network offer bell servic spend spend spend spend spend depart depart depart depart depart depart depart fact ago cost direct school school school school school school school school school school americ americ americ americ americ shop shop shop shop shop load lot peren base favourit sell sell sell sell jean jean jean jean jean jean sneak cloth cloth cloth cloth consum sort funny hasn pant thing basic andrea day plan kent kent kent kent express express express express express corp result travel relat includ includ child child child survey survey survey survey caus great emphas typic invent reduc item item item item textbook textbook textbook board account account account account budget budget budget budget element student student student student student student colleg colleg colleg colleg colleg colleg project demand expend curi boy suppl suppl suppl dramat found styl chang consc girl girl contr aver aver stor stor stor stor stor stor stor stor battl season season holiday access thanksgiv christm bang fight add add add add pur parent parent parent heart mall mall brat presid flex fashion fashion fashion muscl alan millstein millstein millstein consult captur locat offic electron sale sale sale sale left reveal influ kid kid kid group pick pick pick
2295	C12 CCAT GCAT GCRIM	recov recov compan compan compan compan bring early gener gener gener tuesday tuesday money month countr begin begin year year term mor mor york arizon arizon arizon arizon arizon amount suit suit suit suit suit suit suit suit tobacc tobacc tobacc tobacc tobacc tobacc tobacc tobacc tobacc tobacc tobacc tobacc tobacc tobacc tobacc firm firm firm firm file file file file file unit lawsuit lawsuit lawsuit lawsuit lawsuit list list join join seek seek seek hundred hundred hundred hundred week treat smok smok smok smok smok smok smok smok ill ill sourc sourc produc produc michig michig oklahom oklahom stat stat stat stat stat stat suing pay britain attorney attorney attorney carl expect stoval stoval stoval stoval decid decid leth warrant enorm name name name burd shift taxpay philip philip kans kans kans kans kans kans kans cos vigor big defend defend defend law aid frank kelley legal sold million million million million thursday thursday indianapol indianapol indianapol liabl challeng jury jury jury jury delib case case case roge roge roge lawy age age industr industr industr industr industr die lung lung time canc canc widow unspecif damag damag damag damag public public public public advocat advocat urg mayor rudolph giulian financ grow sue paid paid health health care green san francisc head research effort call obtain forc medicaid medicaid medicaid city city city city refund cigaret cigaret jacksonvill fla numb award figur man strick lucky strik defect brown brown williamson williamson plc neglig fail appeal excess discov ll finit claim grant cost cost cost cost program incur risk date americ aim basi educat hazard rjr nabisc rj reynold divid consum loew lorillard simil simil hill knowlton council run institut brook ligget corp corp corp relat relat relat child child actual wednesday wednesday inform dollar dollar dollar total broad make teen add richard mark wood hold group group group prepar sought
2296	C13 C31 C42 CCAT E41 ECAT GCAT GJOB	intens night tip bring qsr tough market congress lipton lipton small small hous econom dine dine back tuesday high high high high restaur restaur restaur restaur restaur restaur restaur restaur restaur restaur restaur rate chain chain chain chain chain month month fast fast fast fast fast fast fast year year term term start billion good good food food food food food food food unit employ employ peopl peopl stat percent pay pay pay requir expect govern bill level level pric pric pric pric busi busi law law law custom million million open open hour hour hour hour hour deliv minim minim minim minim minim minim minim minim minim long long control roge industr industr increas increas increas increas increas increas feder feder rais rais rais rais rais rise rise short short financ financ cent cent cent cent pack work work work work work work work work forc entry compet compet compet compet compet quick servic servic search transl chief chief job neighbor cost risk estimat aim americ americ americ base problem earn earn run result wag wag wag wag wag wag wag wag wag wag wag wag break hike relief hamburg driv driv pizz pizz pizz impact impact mandat concern rippl effect effect item item bruc cotton spokesm spokesm john intern silf lexington ky crew denny total lynch lynch wendy wendy clinton oct sept whit oppos aver late prompt prompt stor set hire hire few young argu make negat impos add add republ measur partn partn execut execut hut fear franchis terry presid presid freund freund operat operat operat compens wichit kan hope scal ord boost cook offic offic count sign sign staff metropolit tax kid casual casual establ establ
2297	M11 MCAT	early recov market market market market market market econom econom back back tuesday stock stock stock stock stock stock stock clos clos clos record fast high high high high high interest interest interest interest interest rate rate rate rate rate rate mor year term bank arizon tobacc tobacc tobacc prefer york firm point point list invest invest smok smok ston issu issu issu quart quart percent strong expect expect philip advanc second fell fell fell fell gain pric index index index index index index rally rally volum million shar shar end end stead stead feder feder reserv short short sue pressur weak weak grow medicaid assoc continu declin inflat growth fact fact fact new new new estimat put put rjr nabisc americ americ loew led earn inspir announc heat blu blu blu blu chip chip chip chip fed fed fed fed intern intern dow dow dow jone aver aver throw set set broad strateg strateg moderat polic polic afternoon unchang unchang unchang unchang allow hurdl make make make ling fear add add add surpr neutral richard crip leg presid mason wood walk pace hold hold amid sign slow slow keep sale sale independ sought stay fire approach bound nov remov congress compan compan roadblock elect tech recent slip hous hous ust retail hbo stall medic pare slump look gener broker rumor downgrad hard opinion find perform indic griffin spectacul game joseph soar barthel merg fahnestock sun sun way hotel liquid tylan visibl receiv safet inquir stud potent composit composit composit data morg stanley trim cisc system intel standard poor nys nys common wilshir equit line lost lost stat meet decid kans open techn techn industr industr industr increas polit buy buy commit rose rose rose rose cent exchang exchang chief chief cost sell wall street softwar nasdaq nasdaq
2298	E12 ECAT M131 M13 MCAT	market market market market evident econom econom econom econom econom econom econom econom econom econom money tuesday tuesday tuesday stock fast interest interest interest rate rate rate rate rate rate rate rate rate rate rate rate rate month month low year year year year year year ahead ahead term term bank bank bank bank bank bank bank bank point point invest week week week quart quart quart quart percent percent percent strong anal anal expect expect expect check check level pric pric end end end long remain remain remain chicag stead stead stead stead feder feder feder feder feder reserv reserv rais rais short attract weak worry san grow grow continu inflat inflat inflat inflat inflat inflat inflat bid growth growth new put consum burst wag wag wag relief wide impact driv driv announc announc pickup spokesm heat expand lynch fed fed fed fed fed fed fed fed fed held held held clinton sept bond chang dow jone jone aver chairm chairm republ polic polic measur unchang make make fear add vice presid presid presid pace hold hold hold amid solid sign slow slow slow slow slow sale group tough fire nov congress elect elect elect elect recent hous retail stall joseph potent data good rich line mill correspons key fund loan annual gmt employ coyn noneth benign mob ken mayland st stat loui meet meet meet keycorp appear quest mean decid decid decid decid precaut reut janu wan wax david brok aubrey lanston face task push sandwich party nominat convent dieg open open open democrat win consid ve momentum reckon sustain fan industr extr increas increas pocket portend unemploy bet polit polit hover past rise rise rise feed greensp told lawmak lose warn eventual commit commit fade vigil rose prevent cent cent cent cent cent cent cut work work work forc spend half speed chief job job part basi base survey charg wall street need forecast alan offic left commerc
2299	C12 CCAT GCAT GCRIM	recov recov recov recov compan compan early market market back tuesday tuesday money money year year receiv york billion billion billion suit suit firm invest invest invest invest invest invest unit equit equit seek larg issu stat pay pay pay decid cash name name name name name name quest quest quest design defend law law law legal face liabl liabl liabl liabl liabl hour hour challeng long case case monday lawy time feder off financ commit commit made told told exchang loss call continu lloyd lloyd lloyd lloyd lloyd lloyd lloyd lloyd lloyd lloyd lloyd lloyd lloyd lloyd lloyd lloyd ceo ronald sandl sandl sandl sandl sandl sandl sandl sandl london underw court court court interrog insur ago multibill critic solvent solvent pound courtroom district judg judg posit payn payn payn payn payn payn complex chief restructur ten thousand claim claim quaint cost anxi await outcom apply settl americ injunct rescu propos propos reinsur pollut asbestos offset vote aug plaintiff detail contend breach disclosur plan plan plan plan plan plan plan plan plan day crucial hap break extingu relat char includ includ ask ask benefact benefact answ answ dispos leftov asset prem unabl proceed resum lunch criticis inform secur secur refus worldw determin subject dollar dollar compl total friday sec sec neutr respons request rule separat morn robert dismit action need need brought know afternoon releas extent pleas pleas add enter recogn pete execut execut lane opportun boost offic left block block
2300	M11 MCAT	nasdaq nasdaq hbo tuesday stock cisc system intel issu corp corp corp activ activ iomeg vike lm eric tel ascend com com oracl offic cp tele trad trad
2301	M11 MCAT	tuesday stock clos clos high composit york nys nys fell pric pric gain volum shar monday industr rose lose exchang compar dow jone aver aver aver moderat unchang trad beat
2302	C181 C18 CCAT	columb columb columb columb columb columb columb columb compan compan compan hca hca healthcar acquir acquir acquir shield shield clear policyhold policyhold policyhold protest protest gener outnumb attend proxy carry read tuesday stop repret retir union entit chain entir burry doct hospit hospit hospit hospit own beneex countr merg merg year patient patient congressm sherrod review restrain northeast cover generat agree form guarantee billion billion writ retain retain manag deal deal deal annual employ peopl larg treat week meet meet meet meet approv approv attorney special advanc quest busi model million million nation nation feder feder area rais commit provid health health health care care work continu assoc compet insur insur insur insur insur brown brown improv chief mail cost program ohio ohio ohio ohio ohio propos propos reinsur consum profit corp includ ask concern concern revenu reduc reduc prem account spokesm john blu blu blu blu blu blu blu blu blu blu blu blu blu blu blu memb joint ventur role chairm polic hurdl execut activ operat operat opportun offic sign trad trad trad cross cross cross cross cross cross cross cross cross cross cross cross cross mln
2303	GCAT GPOL	retir retir econom back tuesday tuesday interest team year year year ahead war war war war war war war war war war war war hero hero colin colin powel powel powel powel powel powel powel road point dole dole dole dole dole dole dole dole dole dole dole dole dole dole dole dole hist gulf gulf lent prestig food ticket alongsid jack kemp kemp kemp kemp veter veter veter veter kentuck natur issu help help help week lead lead lead lead troop troop vict desert storm world world introduc percent lesson balanc strong strong less accus administ administ modern junior bill enlist defend defend defend defend personnel stamp uniform speech speech outlin main career show show appar spotlight rally candid secret haven discuss cabinet prior strength author end imag die long toler social reel oust remind wish greet feder louisvill louisvill airport vfw prais champ proud paid off purpl wound vision foreign reassur san comfort friend enemy notic washington accompan wiv head visit lady lady auxil nearb auditor women hear event delight marion watson chuckl senat crowd poll poll harmon ll energ infus widen mate centrepiec pledg incom put harm elder scant simpl mat americ americ struggl run run plan includ includ clinton clinton clinton clinton project whit few young set moderat republ republ republ republ republ make make add surpr hope presid presid presid operat independ nov congress elect hous gener gener rumor opinion receiv gap stat meet meet meet appear kans party convent convent convent dieg nation nation ve ve ve told provid commit made cut cut cut forc servic spend bob bob part sell detail hap post unabl great great great budget budget joint hit late need fight fight heart campaign campaign campaign campaign tax tax wear wear prepar clear popul
2304	C13 C42 CCAT E14 E41 ECAT GCAT GJOB GPOL	congress congress life small small hous hous carry tuesday high restaur year year year billion peopl today ticket percent pay pay lead vict bill bill bill bill bill bill bill busi busi law law law million hour minim minim minim minim minim minim party democrat increas time time rais rais greet made paid cent cent cent call work work work work forc fami fami play ll crowd part cost south americ americ americ americ led earn gave differ abil failur surround reward wag wag wag wag wag wag wag break unskill includ sugarcoat child child pill labor great hand hand reimpos typic airlin pass pass ran fellow legisl legisl legisl object flag remark piec pro pro pro elabor ceremon ceremon lawn celebr faith real clinton clinton clinton clinton clinton clinton clinton achief oct fanfar sept girl music whit whit marin band stor podium parallel season column perfect fram make pose pink republ republ add add dress measur arm presid presid presid walk walk walk boost boost sign sign sign sign sign sign tax tax
2305	C12 CCAT GCAT GCRIM	expos recov label compan compan fully awar early gener gener tuesday tuesday clos month own countr begin begin year year year year mor mor mor york arizon arizon suit suit tobacc tobacc tobacc tobacc tobacc tobacc tobacc tobacc tobacc file file unit lawsuit lawsuit join seek hundred smok smok smok smok smok smok smok fund produc produc produc stat stat stat stat britain attorney attorney carl stoval expect decid decid philip philip philip florid kans kans cos thursday indianapol indianapol liabl challeng jury jury jury jury delib case case case case roge roge roge roge roge roge lawy lawy lawy discuss age age industr industr industr industr industr industr industr die die lung lung lung canc canc canc canc widow unspecif damag public public public advocat advocat urg mayor mayor rudolph giulian sue sue health health care pack green warn san wound francisc head effort obtain city city city medicaid medicaid cigaret cigaret cigaret jacksonvill award man man strick court court lucky strik move fami fami fami defect brown brown brown near williamson williamson williamson plc neglig fail marion new grant cost cost risk risk americ rjr sell nabisc reynold reynold simil contend brook ligget ligget corp corp corp child wednesday inform held separat know make teen parent indian superior confer litigat richard recoup let heel mark hung wood peddl hold addict addict addict origin quit quit count count subsid subsid death diagnos trial group group group choic
2306	C12 CCAT GCAT GCRIM	recov recov compan compan compan compan compan compan market anti disclos knowledg nicotin publ gener gener correct indig alleg alleg alleg engag tuesday target massiv stop repret illeg conspir violat antitrust fraud fair practic monet prohibit year promot kill mor arizon arizon arizon arizon arizon arizon arizon tobacc tobacc tobacc tobacc tobacc tobacc tobacc tobacc tobacc tobacc tobacc tobacc tobacc firm file file file lawsuit lawsuit lawsuit lawsuit lawsuit lawsuit list join join seek seek smok smok smok fund ill ill produc produc stat stat stat stat attorney attorney carl requir stoval stoval philip kans kans kans kans cos big defend million damag damag public public grow health provid told care research city medicaid medicaid medicaid court court brown williamson resid resid take new grant cost cost cost estimat incur date americ educat rj reynold consum lorillard hill knowlton council institut corp relat relat relat relat child child ask major broad add add confer campaign litigat wood wood wood advert advert addict addict sale trad
2307	M14 M143 MCAT	market market market market market feel slip slip tuesday tuesday stock stock clos clos clos high high low low begin ahead bargain bargain stung cheap build build octob data brent brent brent brent brent brent shrank blend north north north sea sea sea overheat system unoffic forward physic suggest poor cargoe fetch unit avert pump rich wait wint larg guid week week light light west afric distill produc grad stat tran atlant ipe nymex world world pric pric pric pric pric show futur futur futur million million support crud crud crud crud crud crud benchmark oil oil oil oil oil cent head margin london fail direct risk date date shop aug aug run run differ day break refin refin refin invent diesel gasolin prem prem heat heat barrel barrel barrel barrel barrel dollar oct sept due prompt season broad forecast trad
2308	E12 ECAT	fire approach nov congress market market market market elect elect elect recent evident hous retail econom econom econom econom econom econom econom econom econom econom econom stall tuesday tuesday money money joseph interest interest rate rate rate rate rate rate rate rate rate month fast monet year year year ahead term term bank bank bank bank point forward line good annual rich mill week week week correspons quart quart quart key fund gmt stat coyn meet meet meet percent percent percent anal expect expect opt decid decid decid cool bill overnight felt check sit quest mix mean cheney cheney precaut boston reut hancock hancock janu pref act belief fomc fomc open open open end end long sandwich party nominat convent dieg democrat remain remain win increas stead stead stead stead consid feder feder feder feder feder momentum momentum reserv reserv reckon chicag polit sustain fan rise rise extr pocket portend financ grow grow weak commit commit cent cent cent lose san cut work continu continu inflat inflat inflat servic spend move half half speed chief buoy new put job basi base consum justif wide announc charg survey driv impact hand expand heat spokesm john fed fed fed fed fed held clinton sept polic polic polic make make unchang republ add measur forecast surpr presid presid presid pace pace solid hold hold hold offic sale amid commerc left sign sign slow slow slow independ
2309	E512 E51 ECAT G15 G158 GCAT	early market market engag tuesday ag target union fair practic practic countr begin schedul view view unit unit unit seek issu produc produc stat stat stat stat stat stat stat canad world world world administ aid eu eu eu eu eu reform alli european open assur enterpr enterpr enterpr enterpr round round control control talk nation dan glickm secret sum elimin elimin unfair unfair win ste ste prior avoid schroet schroet schroet deput assist afford equival equival sweeten sympos speak disciplin disadvant financ ground commit met monopo obstruc frequ import import cite wheat austral dairy call complain quot farm continu agricultur agricultur agricultur depart depart play step part export export export export export driv reduc prev board intern intern inform japan japan japan japan japan major rule rule access polic allow operat richard sale offic offic subsid subsid subsid subsid subsid trad trad trad trad trad trad trad trad trad trad trad
2310	GCAT GDIP	stay mexic mexic mexic mexic mexic mexic mexic mexic mexic mexic mexic small credit credit econom tuesday money stop year build potent billion billion invest firm pump seek gmt report meet expect aid million million support open talk nation monday monday industr deput foreign past airport paid made city city prim prim minist minist minist arriv arriv arriv ryutar hashimot hashimot hashimot hashimot tour edt trip trip trip juan rebolled gout ecolog medium size front toky doubl ernest zedill chil cost peru brazil direct rica cloud lift aim americ americ kidnap kidnap bord base tijuan ransom export captiv mamoru kon sany electr unoccup contact commun day day day latin latin announc wednesday wednesday comment memb project worth japan japan japan japan japan japan japan found polic releas execut presid presid top leg region hold electron offic offic offic sign subsid trad
2311	C12 CCAT GCAT GCRIM	recov recov recov recov recov recov recov compan early shield market market market hous publ track tuesday tuesday tuesday tuesday hard stop high year year review receiv york form billion billion billion amount invest invest invest invest unit equit equit week week week treat fund issu stat stat percent britain help lead decid name name name name name name name name name name name name sit design defend law law law futur futur legal support face face face liabl liabl hour hour end end challeng challeng long party case case case case monday monday time time deput august off grow commit commit commit made exchang loss head work assoc continu lloyd lloyd lloyd lloyd lloyd lloyd lloyd lloyd lloyd lloyd lloyd lloyd lloyd lloyd lloyd lloyd lloyd lloyd lloyd sandl sandl london underw court court court court insur ago improv pound pound judg posit payn payn chief chief ten thousand claim claim claim cost anxi await outcom apply injunct pledg base propos propos incom reinsur pollut asbestos offset contend undergoe grill grill disclosur plan plan plan plan plan plan plan plan ron threat crucial minut break upset charg includ includ virgin contrav caus person examin essent giant raft deadlin accept accept accept reject reject headach uk boss criticis ditch secur secur secur attempt refus worldw favor determin brit subject judic compl promis friday outspok found sec sec christoph neutr stockwel stockwel respons silent hit hit request reneg rule schem schem chairm throw separat late depend morn robert few avail dismit meant action action action action guidelin brought worst make know extent pleas pleas fight enter recogn pete execut lane litigat opportun boost group group cross
2312	GCAT GPOL GVOTE	wear nov congress popul clear elect hous econom gener gener rumor tuesday retir retir opinion interest rate year year team receiv north war war war war war war war war war war war war hero hero colin colin powel powel powel powel powel powel dole dole dole dole dole dole dole dole dole dole dole dole dole gulf gulf week week lent prestig issu ticket alongsid jack stat stat kemp kemp kemp percent meet veter veter veter kentuck strong strong natur introduc help help help balanc lead lead lead lead troop bill vict vict desert storm appear world world less main accus administ administ defend defend defend defend modern rally show speech strength appar party spotlight candid nation nation secret convent convent convent convent ve ve dieg haven age discuss cabinet die feder prior author chicag imag toler rise social reel off oust remind wish greet foreign past louisvill airport commit made vfw paid provid prais champ proud purpl san wound cut cut vision reassur comfort forc forc friend enemy notic servic visit lady spend auxil nearb auditor hear bob bob put part poll harmon energ infus americ mate centrepiec pledg incom sell harm elder scant simpl trail mat struggl detail run run plan day relat includ includ post great great unabl proceed budget budget project clinton clinton clinton clinton clinton clinton whit set few young moderat polic make inadequ add rely fight fight republ republ republ republ republ mission heart singl arm soldy prospect surpr fault presid presid presid terror operat campaign campaign campaign campaign iran cuba korea advant hope incumb demo boost precis tax independ prepar
2313	C42 CCAT E41 ECAT GCAT GJOB	negot negot negot negot night rhin westphal early ham novemb novemb liber sect unexpect adopt retail retail retail retail retail retail struck rhineland rhineland rhineland palatin palatin palatin lieu lieu tuesday tuesday tuesday tuesday weekday find saturday repret collar immed union union union union union union union union union reach applic shopown shopown even month month progress insist begin bonus bonus bonus room ahead gerhard keuchel come fresh hde hde plead start swift deadlock agree north sporad affect wholesal german drag suggest expert guenther wassman radio deal deal deal deal deal baulk seek bavar employ employ employ employ tenth suspend token token comprom issu controvers berlin germ germ germ germ represent stat stat east percent percent percent percent percent percent percent pay pay pay pay pay opt advanc main model hour hour hour hour end round pull pull talk talk talk talk talk talk talk talk talk dist industr industr time time time rise rise press extr extr off ground weak confid confid told warn call work work work work work work work work work work assoc continu continu declin servic spend strik strik strik posit outcom shop shop shop consum plan plan day wag wag wag wag wag caus driv wednesday essent truck accept accept resum resum refus demand demand demand joint hit whit stor morn broad action add allow allow compens region region offic split split tactic hbv hbv hbv hbv hbv disput dag dag dag dag
2314	M11 MCAT	early market market market market sect credit econom retail retail retail back feel tuesday stock stock stock stock clos clos clos clos record record record high high interest interest rate rate month month low year point point good equit week meet sank britain chalk fts fts surpass couldn background outweigh subdu advanc eye fix sent boom level like gain index index index show show volum million shar open ve remain feder feder reserv return commit margin cut call declin london figur figur fact ago improv outcom lot led led consum consum consum venge reduc prev blu chip brit brit brit late morn set set forecast boost trad trad trad
2315	C152 C15 CCAT	spun acquir early novemb planet planet hollywood hollywood recent retail retail tech tuesday money them high restaur restaur restaur reach month year year year year year receiv generat agree manag invest deal deal seek peopl key debt expect expect expect expect shift trocader trocader trocader trocader trocader trocader trocader trocader trocader trocader trocader trocader trocader tripl tripl tripl entertain entertain entertain entertain entertain piccadil instal relaunch redevelop nick million million million million million million million million million shar leslau leslau leslau leslau leslau convert convert open open span matur challeng rent rent rent leas expir sega redesign give flash segaworld time time virtual imax cinem cinem current current tenant tenant amus arcad deriv marvel marvel marvel marvel mania mania adjac charact provid comic told earl focus cent cent cent cent perelm guaranteed suffic cove overhead propert burford burford success lay ronald transform premy london destin servic visit visit spend plc plc pound pound pound chief complex complex complex complex new estimat shop shop shop shop shop base incom incom consum includ septemb pass revenu revenu revenu revenu revenu revenu built joint joint ventur ventur japan real due robert add enter heart mall mall execut confer mark hold group group
2316	C151 C15 CCAT	stay compan stak stak evident econom tuesday ag slump slump segment month month month year billion billion billion billion billion billion billion system german line invest unit unit unit unit unit unit unit unit wint bought bought germ percent percent percent percent strong strong natur expect fix big busi busi busi gain gain gain million million million million drop drop drop industr give area area speak pressur weak comput comput pack pack cut continu declin growth growth growth figur figur viag viag viag viag viag viag viag viag viag viag viag spend util net match slid diversif pre half half half half half half georg oberme oberme stress posit swoll restructur risen period period new absolut note cost bulk energ energ pape rang pwa final consolidaton skw skw trostberg develop sell cyclic tendenc vary divid divid divid divid fibr drink schmalbach earn lubec turnov alumin vaw compar compar steel profit profit profit profit profit kloeckn result core core includ chemic chemic post logist particip sbi bio workforc asset expand expand effect proceed major major dramat chang chairm make measur confer operat mark mark mark mark mark mark mark mark mark sale sale sale sale sale trad tax group group group group group group group
2317	C11 C22 CCAT	compan compan compan early early market market credit rival card tuesday high rate month year year year year site billion fall fall roll line annual free free free peopl larg key stat local requir introduc sprint sprint sprint sprint sprint sprint sprint sprint sprint sprint sprint bill internet internet internet internet internet internet internet internet jump home mci mci kans mo big chunk busi busi busi busi exist telephon custom custom choos million million flat support unlimit hour end minim long long maxim usag nation techn dist dist time time rise public off off off off off dub passport provid provid clock network network network phon call offer offer offer bell city city entry spark flur numb compet shockwav onlin onlin onlin onlin navigat servic servic servic servic servic servic servic servic servic search move host propriet serv resid rebat certif speed speed modem new kilobit dedicat mail direct direct direct toll americ americ base web consum consum consum consum simil netscap commun compar plan wide corp corp corp announc includ includ revenu goal comprehend capabl rob benjamin benjamin multimed power major access access access access access access access access access access make presid operat operat region commerc group
2318	C22 CCAT	compan compan compan early early market market credit rival card tuesday high rate month year year year year site billion fall fall roll line annual free free free peopl larg key stat local requir introduc sprint sprint sprint sprint sprint sprint sprint sprint sprint sprint sprint bill internet internet internet internet internet internet internet internet jump home mci mci kans mo big chunk busi busi busi busi exist telephon custom custom choos million million flat support unlimit hour end minim long long maxim usag nation techn dist dist time time rise public off off off off off dub passport provid provid clock network network network phon call offer offer offer bell city city entry spark flur numb compet shockwav onlin onlin onlin onlin navigat servic servic servic servic servic servic servic servic servic search move host propriet serv resid rebat certif speed speed modem new kilobit dedicat mail direct direct direct toll americ americ base web consum consum consum consum simil netscap commun compar plan wide corp corp corp announc includ includ revenu goal comprehend capabl rob benjamin benjamin multimed power major access access access access access access access access access access make presid operat operat region commerc group
2319	M11 MCAT	early market market market recent sect track ag tuesday stock stock stock clos clos bottom interest interest interest rate rate even month month beneex year ahead bank generat generat point point point point view line deal deal deal deal guid slight germ germ report report report meet meet lost percent expect expect shift mix big big fomc show sold thursday thursday shar shar shar shar shar european end end case momentum weak provid rose cent cut continu declin growth growth viag viag viag util util util util util util util half fail front part rang earn july day day day profit result chemic chemic chemic answ secur rangebound rangebound bours bours highlight dax dax stick ibi ibi bat forthcom lacklustr shrug due bundesbank bundesbank m3 m3 repurchas repo broad moderat hoechst pfennig pfennig bay make underperform upsw clu operat mark mark boost electron electron slow trad trad trad trad trad group
2320	C21 C31 CCAT	tuesday stock york seat seat nys level million million million sold sold current off exchang exchang exchang bid prev sale mln
2321	C11 CCAT	compan compan compan compan compan compan bring market retail tuesday specif countr countr receiv currenc bank bank bank bank bank bank york agree agree form system physic manag manag manag manag expert unit employ larg represent stat britain britain britain cash cash cash cash boston boston custom custom open nation foreign financ provid provid provid london london quick servic servic servic servic servic plc direct americ base corpor account account account present brit brit dollar suppl set fleet fleet fleet fleet natw natw natw pact westminst sterl desk creat marketplac branch offic offic offic offic commerc sign subsid staff trad group
2322	M142 M14 MCAT	recov follow febru cliff contrast early early early bullion market market market ignor clear clear newfound recent recent evident dism scop elli gifford cambridg fals tuesday breakdown slump occur clos clos clos clos dampen rand immed high high high high high high high high encour interest reach pallad rate perform platin month low low year york york trend trend mid invest deal deal deal deal wait week week afric afric produc meet anal anal anal anal anal anal overnight overnight fix fix fix level level pric pric pric busi rally fomc european open strength end push case techn techn monday gold gold gold gold gold gold edg feder virtual area buy past past commit cent green eventual research london move move move critic step posit specul south south outcom sell detail abil chart chart chart profit break resist resist caut ounc ounc ounc ounc silf silf silf silf silf silf silf silf silf ventur june june hit depend need make add add surpr wood peak peak peak surg reluc ceil elev eas bit bit pure
2323	C32 CCAT	stak stak compan compan compan compan compan compan approach market rival motor motor ford ford ford ford ford ford ford carry star repret interest vehicl vehicl mazd mazd mazd mazd mazd mazd mazd mazd mazd mazd mazd mazd hot compact compact ad ad ad sport promot promot year year year year year year revamp henry wallac wallac wallac wallac wallac wallac wallac wallac wallac wallac fame full full page advertis newspap rare photo ads ads ads ads pictur forward stand seat appoint manag manag poor carmak turn firm troubl spot merchandis join edinburgh equit employ scotland likeabl week impress larg red error assess straight distingu percent percent attent display slog anal pract enjoy decid recreat recreat demio debut appear model show futur brok thursday control increas imag rais car car car foreign foreign foreign past loss head continu success numb figur net ago ago put basi sell sell consum struggl gave result result corp relat survey driv comment spokesm spokesm demand brit june celebr celebr celebr japan japan japan japan japan japan japan japan japan japan japan japan found major major automak automak presid presid presid operat campaign campaign campaign top top hope captur advert origin sale left trad group
2324	E121 E12 E131 E13 E142 E14 ECAT	acquir market novemb hous credit credit econom econom back back tuesday target money money money money money interest interest rate rate rate rate merg year year potent build bank bank bank bank bank bank bank point point fall suggest decemb annual percent percent percent percent percent percent percent strong strong britain special ken govern cash monitor monitor quest m4 m4 level england england england lend lend societ slowdown slowdown soft seiz andraw cate futur futur ubs million million adjust compr circl strength strength deposit deposit governor eddie uncheck reliabl distort rash ammun increas increas chancellor time time exchequ clark clark overrul occas current rise off financ grow pressur cent warn cut cut assoc continu continu minist inflat inflat inflat growth growth growth growth figur figur spend fact pound half georg certif rang rang consum consum consum corpor july july threat person brit brit june june june june suppl suppl suppl suppl throw broad season brought measur activ commerc slow slow
2325	E131 E13 ECAT	ignor recent recent econom econom track tuesday stop month game game year year year year agent agent agent agent lehm brother trend select manag good good good discount discount discount discount issu ticket anal anal anal govern govern quest pric pric pric pric pric pric pric index sold sold deliv drop drop nation press machin machin gaug socc rice replac sock worn kimon corn beef import import golf underlin tast cove basket basket purchas household coordin declin compon cpi cpi inflat harmonic learn figur fish saus eaten snack move move move move detect match accurat play weight russel prolong recess collaps bubbl chief put updat school date base consum consum consum revis announc child includ includ pizz great item item item item item item item japan japan japan japan jone stor stor stor add add measur measur fee offic offic trad
2326	C151 C15 CCAT	early tuesday stock march year year point billion billion fall manag key percent fts expect lead level level index busi busi gain gain telephon custom futur million million million million million million million million shar shar shar increas stead short public grow grow health cent loss loss loss loss offer growth subscrib subscrib subscrib net half pound pound pound pound pre plc doubl orang orang orang orang orang telecom bright mobil direct proof underl succeed han snook interview penc penc base base flotat valu propel compar result driv revenu revenu revenu expand brit brit total dramat add tax group group group
2327	C151 C15 CCAT	compan capac market tuesday money stock stock chain own room year hotel hotel hotel hotel hotel hotel billion billion billion billion billion billion invest debt percent britain cash name fix big pric million million million million million million million million million remain time time rais public public off return focus cut offer offer offer london london initial initial net pound pound pound pound pound pound half pre chief doubl doubl part date rang interview incom thistl thistl thistl thistl thistl exclud except valuat portfolio luxur grosvenor royal plan plan horseguard profit profit profit peel watch announc includ charg septemb reduc expand expand item account hit robert execut region tax group
2328	C42 CCAT E41 ECAT GCAT GJOB	negot negot negot night rhin rhin westphal westphal early novemb novemb liber unexpect adopt retail retail retail retail retail retail struck rhineland rhineland palatin palatin lieu lieu tuesday tuesday tuesday tuesday tuesday weekday saturday collar union union union union union union union union reach applic shopown shopown month month begin bonus bonus bonus room ahead gerhard keuchel fresh hde hde plead start swift deadlock agree agree agree north north sporad affect wholesal german drag suggest expert guenther wassman radio deal deal deal deal baulk seek bavar employ employ employ tenth suspend week comprom issu controvers berlin germ germ germ germ germ represent stat stat east percent percent percent percent percent percent strong pay pay pay pay shift hour hour hour hour end round talk talk talk talk talk talk talk talk dist industr industr feder time time time rise rise press extr off confid weak made told warn warn call call work work work work work work work assoc declin servic spend strik strik strik posit chief chief outcom shop shop shop settl aim consum plan plan wag wag wag wag wag falt resolut stumbl caus driv optim wednesday ulrich truck walt impossibl cope chanc accept plac town marl resum resum resum indefinitie demand demand demand whit hit hit stor morn broad action add allow allow region region offic hbv hbv disput disput dag dag dag block
2329	C33 CCAT	acquir disclos retail tuesday own countr octob deal unit larg million nation roge car provid provid care cent cent cent cent servic corp snap snap snap equip equip pensk pensk pensk pensk pensk auto auto auto tool mainten kmart kmart automot subleas spac transpor magnat stor locat
2330	C152 C15 C181 C18 CCAT	compan compan compan nasdaq early market gener tuesday stock stock tylan tylan tylan receiv inquir potent retain manag jump jump buy financ commit explor direct equip weigh set process overs goldm sach advis make add sale sale sale trad
2331	C151 C15 CCAT	market market market market hous slip slip tuesday stock low year build billion firm larg gross report percent percent percent percent britain britain anal home level level lend lend lend societ societ societ million shar shar shar rise public buy offer net pound half size interview profit profit profit account spokesm total halifax halifax ipo loom mortg mortg mortg mortg mortg reviv mort gary marsh marsh norm shy reflect reflect transact pursuit prepar
2332	C12 C17 CCAT GCAT GCRIM	recov recov recov compan early market market market market market publ tuesday tuesday high year year term receiv review york billion billion billion invest invest unit unit unit equit equit week week treat issu stat stat stat help decid name name name name name name name name name design law law law futur legal face face support liabl liabl challeng challeng long case case case case case monday off grow commit commit exchang call continu lloyd lloyd lloyd lloyd lloyd lloyd lloyd lloyd lloyd lloyd sandl london court court court court court insur insur ago improv pound pound judg posit payn payn chief ten thousand claim claim cost anxi await outcom americ apply injunct rescu base propos propos reinsur pollut offset contend breach ron disclosur day plan plan plan plan plan plan threat crucial crucial minut relat upset includ includ person examin raft accept accept reject uk boss criticis secur secur secur ditch refus attempt worldw determin favor subject brit brit compl judic friday sec sec neutr respons request rule rule rule separat late throw morn robert dismit action action action guidelin brought worst know extent pleas pleas fight enter recogn pete execut lane litigat opportun boost brac brac richmons left va asbesto hang cross flound group block
2333	C311 C312 C31 CCAT E512 E51 ECAT	cumulat soybean veget fat tuesday month month month year year billion billion billion billion billion billion billion billion billion report fell fell fell million million million million million million million million oil commod rose corn import import wheat farm farm farm agricultur depart depart period export export export export peg revis compar compar prev june june june june june commerc commerc trad trad trad trad surplus surplus surplus
2334	E12 ECAT	early market market market tight preston martin martin martin recent recent recent credit hous homev odd econom econom econom econom econom econom econom econom econom heav unanim abound clip tuesday tuesday tuesday sery sery stock repret plung steep slack joel interest interest interest interest prakk rate rate rate rate rate rate rate rate rate rate rate rate macroeconom fast llc practic monet inconclud revers begin undertak year year rebound term data start start bank bank bank bank bank point point stand view suggest good expert expert discount firm week week quart quart fund fund loan domest gmt gmt report report percent percent percent meet meet meet meet strong anal requir expect decid st cool cash overnight loui appear fell quest mix reut janu slowdown slowdown pric act soft belief show fomc futur shar speech open governor control drop benchmark discuss increas stead stead time time feder feder feder reserv short rise rise rise grow grow past financ financ commit met made import import cent cent san francisc fade prevent inflat inflat quick servic edt edt move ago weight take new poll await outcom wide announc charg charg prev plac memb fed fed fed fed fed fed fed fed fed demand june deficit bond chang chang chang chang rule rule late chairm chairm chairm morn polic polic polic advis make make add forecast forecast vice prospect presid mark hold amid commerc sign sign sign trad slow slow eas
2335	E12 ECAT	early market market market tight preston martin martin martin recent recent recent credit hous homev odd econom econom econom econom econom econom econom econom econom heav unanim abound clip tuesday tuesday tuesday sery sery stock repret plung steep slack joel interest interest interest interest prakk rate rate rate rate rate rate rate rate rate rate rate rate macroeconom fast llc practic monet inconclud revers begin undertak year year rebound term data start start bank bank bank bank bank point point stand view suggest good expert expert discount firm week week quart quart fund fund loan domest gmt gmt report report percent percent percent meet meet meet meet strong anal requir expect decid st cool cash overnight loui appear fell quest mix reut janu slowdown slowdown pric act soft belief show fomc futur shar speech open governor control drop benchmark discuss increas stead stead time time feder feder feder reserv short rise rise rise grow grow past financ financ commit met made import import cent cent san francisc fade prevent inflat inflat quick servic edt edt move ago weight take new poll await outcom wide announc charg charg prev plac memb fed fed fed fed fed fed fed fed fed demand june deficit bond chang chang chang chang rule rule late chairm chairm chairm morn polic polic polic advis make make add forecast forecast vice prospect presid mark hold amid commerc sign sign sign trad slow slow eas
2336	M12 M132 M13 MCAT	night tight novemb market market market tough tough recent recent hous econom econom econom econom econom back tuesday tuesday high high interest interest rate rate month month march low low monet year retreat retreat currenc mild mild disappoint disappoint maid conserv conserv bank start sunk wasn suppos point point billion billion billion billion billion billion billion extrem fall doesn live steph steph headlin headlin median borrow squeez maintain gloss repeat pave week larg intact complet lock costel erod stat freeland yield yield yield yield commonwealth lost percent percent percent percent difficult strong downward local local anal minor requir expect expect prob govern govern govern upp treasur paint outlook outlook advanc koukoul citibank level rally anticip million ubs hour long party momentum bear pressur rose cent austral austral austral austral austral austral cut cut cut senior fisc fisc inflat inflat growth quick slid pre take chief chief senat senat senat underl underl underl save date basi basi led led failur day day announc announc pass pass reduc reduc prev chanc bruc comment budget budget budget budget budget budget budget budget budget budget budget budget budget budget favor dollar dollar dollar dollar dollar dollar total deficit deficit bond bond bond bond bond bond aver set robert polic add hurdl forecast forecast rosy fear surpr advant offic amid amid eas block surplus surplus
2337	C151 C15 CCAT	recov recov compan compan early market market launch launch retail tuesday ag slump clos clos perform month month low year year year rebound receiv currenc full april trim billion billion billion billion prefer manag de domest domest produc produc produc produc germ germ report report report percent percent percent percent percent percent percent percent percent percent percent percent britain strong expect requir help jump fell well well well well well well well well well well well well haircar haircar outperform rest gain busi busi interim ordin dissolut provis turnaround anticip million million million million million million million million million million million million million million million million million million million million advers shar shar shar outstrip hairdress hairdress stagnat concept long scent cosmet versus abroad chin give industr russia increas muelh time eau cologn rise rise foreign rose rose rose health cent loss continu success growth growth growth growth figur move net net improv improv predict predict pre pre half half half half sharp sharp fail posit buoy period new part problem develop earn earn earn day profit profit profit profit profit profit core post expand spokesm spokesm worldw achief chang due due make unchang parent operat operat operat reflect mark mark mark mark mark mark mark mark mark mark mark mark mark mark mark amid sale sale sale sale sale sale sale sale sale sale subsid subsid tax tax group
2338	M12 M132 M13 MCAT	night tight novemb market market market tough tough recent recent hous econom econom econom econom econom back tuesday tuesday high high interest interest rate rate month month march low low monet year retreat retreat currenc mild mild disappoint disappoint maid conserv conserv bank start sunk wasn suppos point point billion billion billion billion billion billion billion extrem fall doesn live steph steph headlin headlin median borrow squeez maintain gloss repeat pave week larg intact complet lock costel erod stat freeland yield yield yield yield commonwealth lost percent percent percent percent difficult strong downward local local anal minor requir expect expect prob govern govern govern upp treasur paint outlook outlook advanc koukoul citibank level rally anticip million ubs hour long party momentum bear pressur rose cent austral austral austral austral austral austral cut cut cut senior fisc fisc inflat inflat growth quick slid pre take chief chief senat senat senat underl underl underl save date basi basi led led failur day day announc announc pass pass reduc reduc prev chanc bruc comment budget budget budget budget budget budget budget budget budget budget budget budget budget budget favor dollar dollar dollar dollar dollar dollar total deficit deficit bond bond bond bond bond bond aver set robert polic add hurdl forecast forecast rosy fear surpr advant offic amid amid eas block surplus surplus
2339	E512 E51 ECAT	recov mexic mexic small bound emerg econom econom tuesday plung month month game low low countr countr countr year year climb climb gap gap gap gap shrank petroleum petroleum petroleum shortfal shortfal shortfal billion billion billion billion billion billion billion billion billion billion billion billion billion billion billion billion billion billion billion billion billion billion billion billion billion decreas german good unit unit merchandis merchandis merchandis merchandis larg quart quart quart sourc slight produc produc straight stat stat percent percent percent percent percent percent percent percent percent percent percent atlant anal help surpass lead canad fell fell fell fell level main big big volum volum million million million million million million europ shrink shrink nation nation drop drop drop drop drop oil industr chin chin chin chin stead time narrow narrow bilater bilater fuel tension reason influx foreign tourist car grow olymp typ runup made civil aircraft import import import import import import import import comput mater semiconduc western deep opec declin declin declin tour servic servic servic depart depart depart improv improv sharp sharp sharp recess part part part note cost cost americ export export export offset revis revis run travel typic wall street prev barrel auto june june june june june june june june june june june june june june june suppl japan japan japan japan deficit deficit deficit deficit deficit deficit deficit deficit deficit deficit deficit deficit deficit dramat forecast fourth solid boost sale offic amid amid sign commerc commerc commerc trad trad trad trad trad trad trad trad trad trad eas surplus surplus surplus
2340	E512 E51 ECAT	recov mexic mexic small bound emerg econom econom tuesday plung month month game low low countr countr countr year year climb climb gap gap gap gap shrank petroleum petroleum petroleum shortfal shortfal shortfal billion billion billion billion billion billion billion billion billion billion billion billion billion billion billion billion billion billion billion billion billion billion billion billion billion decreas german good unit unit merchandis merchandis merchandis merchandis larg quart quart quart sourc slight produc produc straight stat stat percent percent percent percent percent percent percent percent percent percent percent atlant anal help surpass lead canad fell fell fell fell level main big big volum volum million million million million million million europ shrink shrink nation nation drop drop drop drop drop oil industr chin chin chin chin stead time narrow narrow bilater bilater fuel tension reason influx foreign tourist car grow olymp typ runup made civil aircraft import import import import import import import import comput mater semiconduc western deep opec declin declin declin tour servic servic servic depart depart depart improv improv sharp sharp sharp recess part part part note cost cost americ export export export offset revis revis run travel typic wall street prev barrel auto june june june june june june june june june june june june june june june suppl japan japan japan japan deficit deficit deficit deficit deficit deficit deficit deficit deficit deficit deficit deficit deficit dramat forecast fourth solid boost sale offic amid amid sign commerc commerc commerc trad trad trad trad trad trad trad trad trad trad eas surplus surplus surplus
2341	M11 MCAT	stock clos clos clos hotel mill today ship lead cos pric index index shar shar nation industr industr pow bombay bombay cement arvind bajaj bhel bse colgat glax india grasim gujarat ambuj hindalc hindust leve hpcl icic idbi ipcl itc lars toubr mahindr mahindr mtnl nestl ranbax laborat reli sail tata tata tata tata engineer aug steel chemic sbi prev auto indian
2342	C13 CCAT E512 E51 ECAT	hsu hsu chieh compan compan kuei televis study counterpropos pour breakthrough remov remov evergreen adopt welcom back tuesday tuesday stop find countr own own promot provinc agent agent newspap point sea billion view view good war invest issu issu issu ship ship ship ship ship ship ship ship ship stat stat tran tran lost pract pract decid govern govern govern cool name level pref busi busi open nation chin chin chin chin chin chin chin chin chin chin chin chin cabinet polit polit tension urg bear daily pressur civil civil side side side side care cent cent aircraft prevent minist minist servic posit new mail cost direct direct direct direct direct direct direct direct direct save propos sail sail problem develop taiw taiw taiw taiw taiw taiw taiw taiw taiw taiw taiw taiw taipei taipei link link link link link link link link link link link simil strait strait strait strait strait ban ban ban commun commun detail happy gave gave council council accompl island island island plan plan plan transport transport transport transport policymak corp mainland mainland mainland mainland affair affair resolut beij beij beij beij beij belat mingl mingl sens sens regulat regulat giant whol involut taiwan taiwan effect shipown comment xinhua xinhua spokesm carg caut caut flag passeng accel air air project elabor hong hong kong kong wen joint wei ventur po southeastern port port xiam respons respons glob fuzhou marin cond rule rule rule late ripe set barry attitud obstacl meant chiang kai releas shek allow fled renegad recogn vessel skirt macau fulfil ambit asia pacif top mark hub offshor offshor hope southern kaohsiung delay offic sovereignt squabbl trad docu eas interpret reciproc block establ establ
2343	C12 CCAT GCAT GCRIM	compan compan compan early novemb market life life life jail jail jail jail jail businessm french tuesday la la la promenad promenad promenad sentenc sentenc sentenc sentenc sentenc sentenc sentenc sentenc high high high haunt fly forev fraud fraud fraud month laud cup yacht race convict year year year year year year year kill fortun guilt guilt term term eduoard manet improp privat privat privat bank dallhold york pty antoinet kenned kenned kenned kenned kenned kenned passion art art inabl fiefdom offent invest punish lenient prison prison prison prison prison individual profil peopl peopl understand impress sink prestig anonym bought compos smil convers wif dian bliss dock custod penalt apprentic paint paint signwrit monitor suff appear blood prop avid collect heyday defend empir induc contribut conceal acquit sold million million million million million million face long jury jury maxim maxim auction lawy lawy lawy win time time buy pressur health western austral austral austral austral austral friend serv half judg judg fail fail collaps posit posit appeal claim direct estimat americ rescu lot problem led led corpor corpor corpor corpor surround charg charg person sens involut accept flag friday found found found bond bond bond bond bond bond bond bond bond bond bond bond bond bond bond bond cond rule late dismit impos heart alan alan fee hold sale slow trial
2344	C151 C15 C31 CCAT	compan compan stak stak early televis televis televis televis televis market launch launch recent card tuesday record high rate month low undertak year year year year year year year climb climb full full start agree billion wholesal live retain german firm deal deal deal annual seek bavar larg stat report report report percent percent percent percent percent britain pay pay anal expect expect busi million million million million million million million million alli europ europ shar bskyb bskyb bskyb bskyb bskyb bskyb bskyb bskyb bskyb bskyb bskyb european satel broadcast broadcast end domin ireland contract rupert murdoch dividend shed channel channel channel renew increas time leagu leagu pioneer digit digit digit digit sam chisholm rise rise kirch kirch kirch grup platform socc socc extend contin financ media commit mogul leo df1 provid rose rose inject focus box golf cricket disney loss head enabl cove right purchas engl forc horizon continu cabl cabl intervent satisfact numb numb structur premy premy growth subscrib subscrib servic spend spend ago pound pound pound pound pound pound event chief new program program cloud base penc penc develop develop revis turnov plan day profit profit profit corp charg great uk secur brit brit brit june june cond set access forecast fear execut operat top top opportun fee surg sign sign trad group
2345	E211 E21 ECAT GCAT GPOL GVIO	wear label stak market tough anti anti small liber hous hous hous protest protest protest tuesday tuesday tuesday tuesday money hard union month fair fair fair hospit stag stag countr year year year maid conserv spokeswom billion billion billion doesn forward stand repeat peopl hundred hundred fund debt costel costel costel gmt gmt report govern govern govern govern treasur treasur paint storm societ busi law rally rally rally rally rally million million stamp stamp stamp hour assur end control nation nation monday give deput attract finish financ disadvant commit told told told austral austral austral austral austral austral austral austral austral austral cut cut cut cut friend continu fisc aborigin aborigin aborigin aborigin aborigin aborigin aborigin aborigin aborigin aborigin aborigin aborigin aborigin burn burn spend canber canber move fami burnt nearb parlia parlia parlia parlia parlia play clash brisban adelaid indigen indigen ash rowdy front front front chant didgeridoo rhythm put ent repel riot riot riot riot program gear gear save attack aim brick bottl confront policewom problem kick welfar foy justic charl strait perkin perkin map word cede island land racist chair hap tor minut ray announc announc robinson reconcil reconcil reconcil black dead forget concern stab gut knif plac dying chron extern slash budget budget budget budget budget budget budget budget budget budget budget budget flag flag flag flag flag student june stick deficit deficit promis achief whit whit whit cond morn don polic polic polic polic polic measur forecast pete activ peak count sovereignt group group surplus
2346	E211 E21 ECAT GCAT GPOL GVIO	wear label stak market tough anti anti small liber hous hous hous protest protest protest correct correct tuesday tuesday tuesday tuesday money hard union month fair fair fair hospit stag stag countr year year year maid conserv spokeswom billion billion billion doesn forward stand repeat peopl hundred hundred fund debt costel costel costel gmt gmt gmt report convers govern govern govern govern treasur treasur paint storm societ busi law rally rally rally rally rally million million million stamp stamp stamp hour assur end control nation nation monday give deput attract finish financ disadvant commit told told told austral austral austral austral austral austral austral austral austral austral cut cut cut cut friend continu fisc aborigin aborigin aborigin aborigin aborigin aborigin aborigin aborigin aborigin aborigin aborigin aborigin aborigin burn burn spend canber canber move fami burnt nearb parlia parlia parlia parlia parlia play clash brisban adelaid indigen indigen ash rowdy front front front chant didgeridoo rhythm put ent repel riot riot riot riot program gear gear save attack aim brick bottl confront policewom problem kick welfar foy justic charl strait perkin perkin map word cede island land racist chair hap tor minut ray announc announc robinson reconcil reconcil reconcil black dead forget concern stab gut knif plac dying chron extern slash budget budget budget budget budget budget budget budget budget budget budget budget flag flag flag flag flag student dollar june stick deficit deficit promis achief whit whit whit cond morn don polic polic polic polic polic measur forecast pete activ peak count sovereignt group group surplus
2347	C12 CCAT GCAT GCRIM	follow compan life life back jail jail jail jail businessm french tuesday la la promenad promenad sentenc sentenc sentenc sentenc sentenc sentenc sentenc sentenc encour fraud fraud fraud cup yacht convict year year year year kill guilt term term manet improp privat dallhold york pty antoinet kenned kenned kenned kenned passion system art inabl fiefdom offent invest hero lenient prison prison prison peopl understand impress sink anonym custod paint paint suff monitor blood sold million million million million long maxim nation nation auction lawy lawy time time buy reason speak speak pressur commit commit health health western austral austral austral austral austral court district judg fail fail posit posit appeal appeal direct americ lot problem problem corpor corpor corpor commun commun commun corp corp charg sens involut accept flag troph secur memb satisf regard vici hate fill friday insat edouard found bond bond bond bond bond bond bond bond bond bond bond bond bond bond bond watchdog combin action brought intend argu impos impos heart alan alan captur hold slow
2348	C11 C312 C31 CCAT	compan begin countr schedul octob radio radio join afric afric afric report introduc brand brand open time financ london servic take pape pape south south south apply plan plan virgin virgin virgin virgin virgin virgin virgin airlin expand expand major branson sprawl consort licent johannesburg johannesburg megastor vodk cola regul newsroom richard commerc group group group
2352	M11 MCAT	compan early market market market market market market market sect sect sect sect hous credit econom retail retail retail retail retail retail back back feel tuesday stock stock clos clos clos clos clos clos record record record high high high high interest interest rate rate rate rate rate rate month month low year year build point point point view good invest discount deal deal deal squeez equit peopl larg larg week today report meet meet atlant strong sank britain britain chalk fts fts surpass couldn lead background outweigh subdu advanc advanc eye fix sent sent boom level lend like societ interim interim gain gain index index index fomc show volum anticip million shar shar shar shar strength strength open end ve ve remain remain increas feder polit return commit told margin cut cut call continu declin senior senior london london figur figur fact ago improv half event posit new outcom outcom lot sell led led consum consum consum venge result result result inspir optim reduc prev caut uk uk flag blu present chip brit brit chang chang dow chairm late depend morn set set don polic releas halifax halifax bull jon mortg forecast fould gus argo yesterday wav dixon kingfish assum reasur boost electron trad trad trad trad
2354	C33 CCAT	market emerg tuesday data data agree line line firm deal produc stat internet consid london london servic plc plc base corpor turnov profit relat impact inform inform brit glob newsroom partn partn emd emd emd emd emd distribut profound profound dublin
2355	M142 M14 MCAT	metal metal metal metal metal metal soybean obligat react react yellow early early novemb grain market market market market market market popul wheather frost recent cdt dism quiet back cop cop warehous overhang anxiet tuesday tuesday funda stock stock cap find clos clos clos clos stg stg stg record kg high high high high bag bag reach stockpil perform perform ldn ldn fair month month sep low low dec race own year come cheap brent north york fall mid headlin good modest modest turn firm decemb decemb deal deal deal deal deal deal week week week key key fund gmt strong ipe expect overnight canad fix fix fix fix level cocoa cocoa pric pric pric pric pric busi custom futur futur futur futur futur european deliv deliv coffee coffee coffee contract contract drop techn monday monday monday monday monday monday industr gold gold gold gold commod commod commod area chicag chicag rise august bet buy buy buy off robust grow corn cent cent cent cent cent cent cent exchang exchang exchang wheat wheat call london london london lack move move move half certif sugar sugar specul specul new put underl date americ ton ton ton ton ton ton base sell alumin alumin profit resist septemb septemb reduc chanc board barrel ounc ounc silf silf silf silf silf silf silf favor ventur june oct oct whit whit late set morn afternoon add forecast forecast forecast heart activ sterl region peak trad trad trad eas eas lag hedg bit bit pure option option option
2356	M11 M132 M13 MCAT	bullion bullion market gener stock stock clos clos clos clos clos clos clos indic indic indic high high high low low dec tabl shown bracket midday jul jul jul jul currenc jun mar yen yen frankfurt frankfurt pari pari apr apr york york sydney sydney point point feb feb feb cac seng key key germ gmt fts nikkei world jan jan jan jan jan index index index index index ordin show industr gold gold gold time foreign exchang exchang austral london london london london move pound pound toky toky date valu aug aug aug day day day prev ounc hong hong kong kong dax dollar dollar dollar brit japan major chang chang dow jone aver aver late mark mark hang
2359	C151 C15 CCAT	compan market popul emerg sect evident gener gener clos record high high high perform low low low countr countr year data north trust trust trust trust poor poor aitc aitc aitc aitc aitc datastream discount discount discount discount discount discount discount discount discount discount discount invest invest invest invest invest invest invest ern fenton misunderstood list automat individual indicat exempl capit carolin fund fund fund fund fund fund allen slight stat east percent percent percent percent percent percent percent show show show show europ europ end end end end end narrow stabl stabl august return contin contin propert assoc london figur fact note direct americ apply develop exclud july july july includ uk uk ventur june june japan hit hit aver aver aver aver aver consort singl singl desk
2360	C17 C174 CCAT E212 E21 ECAT	obligat draw small small sect credit credit econom tuesday high high entit rate rate rate rate rate rate rate rate rate rate macroeconom macroeconom countr year term term term currenc currenc currenc currenc currenc currenc currenc currenc agent agent agent privat april point billion fall standard poor invest turn turn issu debt debt debt debt debt debt debt ibca ibca ibca ibca ibca ibca ibca stat affirm affirm affirm italy italy italy italy italy italy aa aa local minus expect unsecur govern confirm a1 a1 assign aaa shift sovereign sovereign sovereign ratio ratio ratio path italian italian easy environ environ blow moody aa3 illustr dynam aspect reform advers european strength long long consid sustain rais current rise short public public public public foreign foreign foreign foreign foreign foreign foreign foreign corn suffic continu senior fisc fisc gdp gdp gdp servic save save apply final problem july reduc account project project favor late set battl polic allow republ sign ceil ceil surplus
2363	C32 CCAT GCAT GPOL	star tuesday month year kill receiv receiv agent conserv conserv brother brother start newspap newspap newspap photo form ads ads ads ads ads ads writ doesn standard decemb week red sourc special decid lead eye eye eye eye eye reut reut act show brok support party party industr industr industr unfair author polit polit public oust flood depict tony tony blair blair blair blair demon demon demon asa asa asa offend told told told infring priv degen mud sling saatch saatch saatch saatch saatch complain complain complain quot mauric manic grin gleam strip london scot evil figur serial pirat mad play vote charl ban ban run breach plan day upset black labor labor brit brit brit watchdog respons rule rule oppos make campaign campaign campaign campaign campaign desk creat wood wood incumb advert advert advert advert advert advert advert advert
2364	GCAT GENT	night bound evident welcom feel buzz tuesday hard record perform stag stag stag own begin begin year year year william schedul full bank site hist hist writ seat forward live stand stand punish produc produc italy recreat recreat st england less modern act act act act act act act show million million open open open lear die time canc rais sam sam met side care care cent vision work work work work success learn london london search depart ago exper exper critic auditor play play play play theatr theatr theatr theatr theatr theatr women rainy pound sky sky jame jame troup shakespear shakespear shakespear shakespear shakespear shakespear peform replic thatch discov aren crowd put put fine claim macb part direct direct hamlet king south lifetim aim americ realis dream interview wanamak wanamak wanamak framework sell burea greed yard tham opposit paul cathedr prolog prolog gentlem gentlem gentlem gentlem veron veron veron day day want lennie grey wag permeat artist includ includ rylanc rylanc rylanc rylanc rylanc black centur audienc audienc sens wednesday wednesday ready heckl bad volley rot plac plac fruit built built scrib guard stol histor histor glean excavat destroy june purit wrong boyish real notwithstand role authent drast glob glob glob glob glob glob glob glob cast rule cond unheard cushion set battl raincoat season thunderstorm weather eyebrow symbol risky predat forecast fear mark hope wood wood offic origin origin origin commerc trad trad influ choic
2366	C11 C22 CCAT	negot televis televis market launch launch launch launch own promot year year north agree deal report report percent strong britain quest big pric custom million bskyb bskyb bskyb bskyb bskyb bskyb face satel satel satel satel broadcast broadcast ireland talk channel channel digit digit digit digit digit sam press chisholm chisholm chisholm provid provid cabl success compet numb london subscrib servic servic servic sky chief telecom program americ favourit base link link link commun plan wide ask comment demand brit brit suppl late set don access newsroom add add see partn execut prospect tv bt bt possibl interact subsidis decod ideal analog bbc bbc bbc bbc flextech flextech denv clinch tele keith weir group
2369	C181 C18 CCAT	informaiton compan payment stak stak milion dmgt acquir study study publ gener tuesday stg stg interest perform own year trust deal issu loan percent pay balanc cash million million million buy daily daily made paid london plc note mail mail base profit pretax relat whol expand brit total newsroom subsid group group group group pct
2371	C181 C18 CCAT	stak stak stak acquir premier premier premier tuesday germ report pay pric bskyb bskyb satel broadcast broadcast end sam chisholm told provid network satisfact plc sky chief brit execut tv
2372	C12 CCAT GCAT GCRIM	recov recov recov recov compan early shield market market market market market hous publ track tuesday tuesday hard stop high year year term receiv review york form billion billion billion amount invest invest invest unit equit equit week week week treat fund issu stat stat percent britain help lead decid name name name name name name name name name name name name sit design defend law law law futur futur legal face face support liabl liabl end end challeng challeng long party case case case case case monday time deput off grow commit commit commit made exchang loss head call work assoc continu lloyd lloyd lloyd lloyd lloyd lloyd lloyd lloyd lloyd lloyd lloyd lloyd lloyd lloyd lloyd lloyd sandl london court court court court court insur insur ago improv pound pound pound judg posit payn payn chief ten thousand claim claim claim cost anxi await outcom americ apply injunct rescu pledg base propos propos incom reinsur pollut asbestos offset contend breach ron disclosur day plan plan plan plan plan plan plan threat crucial crucial minut break relat upset charg includ includ virgin person examin giant raft accept accept accept reject reject uk boss criticis secur secur secur ditch refus attempt worldw determin favor subject brit brit compl judic promis friday outspok sec sec christoph neutr stockwel stockwel respons silent hit hit request reneg rule rule rule schem schem chairm separat late throw depend morn robert few avail dismit meant action action action action guidelin brought worst make know extent pleas pleas fight enter recogn pete execut lane litigat opportun boost brac brac left hang cross flound group group
2374	M142 M14 MCAT	recov follow metal obligat contrast early early bullion popul market market market market refer clear absorb recent recent recent tru evident dism scop elli gifford cambridg fals tuesday tuesday breakdown slump slump occur clos dampen rand rand immed high high high high high interest reach pallad pallad rate perform platin month low own year ahead currenc disappoint cheap york york good mid firm invest deal deal deal deal deal deal deal deal deal week week fund slight afric afric produc meet anal anal anal anal overnight overnight overnight fix level pric pric pric pric pric pric pric busi rally fomc futur european strength open case versus techn techn monday monday gold gold gold gold gold gold gold edg feder commod bet buy buy buy off past weak commit cent eventual research call london move move move move move critic specul specul note underl south south date sell sell sell detail run abil chart chart chart day profit break resist caut ounc ounc ounc ounc silf silf silf silf silf silf silf silf silf dollar ventur june june hit aver depend morn set afternoon make add add add surpr peak peak surg reluc ceil eas hedg bit bit pure option option option
2375	C151 C15 CCAT	launch fray kepit kepit kepit submit embattl kleinwort unitis unitis clos rachel record medill sharehold own own spokeswom privat trust trust trust trust manag manag discount invest invest unit join mean million shar shar european august attract subscrib bid net pound plc plc direct date propos asset reduc brit hold trad group
2376	C11 CCAT	compan compan market gener tuesday high them grandmet grandmet grandmet pillsbur pillsbur pillsbur pillsbur brief walsh overview brew chiswel year ahead trend invest food gmt anal brand shar outlin win sustain provid pack cove city london london growth chief develop develop paul institut plan wednesday wednesday street spokesm present present present held strateg morn make newsroom execut execut operat marketplac trad subsid
2380	E121 E12 ECAT M11 MCAT	market market recent recent quiet econom tuesday high interest interest rate monet ahead damp data data start point deal week week today germ meet meet fts expect lead decid mix m4 index fomc fomc anticip shar shar shar open open open open monday remain stead stead feder reserv pressur commit worry inflat london outcom session wednesday caut uk uk chang polic activ trad eas
2381	C151 C15 CCAT	compan televis market stg stg reach month low low year declar concensus debr sherm deal slight percent percent anal anal expect fell million million shar shar shar bskyb bskyb satel broadcast end dividend dividend august short rose cabl london pre pre risen estimat profit result concern brit june newsroom forecast peak trad tax
2384	C151 C15 CCAT	compan market tuesday month consensus line report britain gain telephon million million million million million end time loss loss subscrib subscrib half pound pound pre plc doubl orang orang orang new mobil widen announc prev june june operat sale tax
2386	C1511 C151 C15 CCAT	nov stg stg interest year year full full yr shr nil div regist stat pay anal jump million million bskyb broadcast dividend dividend london net ago plc sky pre note note cost date date rang penc penc penc flotat except except turnov profit profit profit pretax pretax charg charg brit total june sept newsroom forecast operat reflect tax tax tax pct
2387	M11 MCAT	metal early market market market market small recent sect econom slip tuesday stock stock stock stock stock stock stock stock stock clos indic high high high high high interest interest reach reach reach rate rate rate low ahead term composit climb lehm bank bank point point point point billion toront toront toront toront toront toront toront resourc resourc resourc richardson invest invest greenshield lind height equit meisel meisel cycl debat spread heavyweight today key key key barrick issu issu issu swan mine drill report percent meet strong anal anal advanc jump jump canad canad canad canad reut pric gain index index index rally million million million shar shar open strength strength end nation gold gold gold gold feder time bureau rais short august media commit cent import exchang cut declin play excess await risk widen base valu led led turnov july transport ron result corp black june bond hit hit unchang bull prospect activ activ presid boost hold surg trad trad beat eas
2389	C42 CCAT GCAT GJOB	compan tuesday funda union employ issu stat represent quak quak oat oat peterborough local ontario caw caw pension jerry dia protect canad outsourc principl nation respect work work work work senior senior lay strik strik critic improv job job plan want plant essent concern secur secur memb regard regard auto add
2398	C151 C15 CCAT	compan market lieu high rand interest month year term full yr shr shr div div div regist fall capit debt stat expect cash level attrib attrib cts cts payabl futur million shar end dividend industr increas current off paid margin compet improv pre half half note incom turnov announc septemb reduc held june major hit johannesburg newsroom add activ hold hold tax tax group
2399	C32 CCAT GCAT GCRIM	compan payment payment small launch submit submit fals tuesday money cap cap cap cap interest reach game own year promot promot promot promot team provinc disappoint agent agent newspap regist writ firm firm unit unit seek peopl peopl peopl issu report pay local local vict cash main reut janu polish polish polish coca coca coca coca coca coca poland poland poland futur custom federat behalf priz priz priz priz priz support pap sp print print print print insid venu warsaw zloty zloty zloty zloty zloty marcin sum sum gold barcz barcz barcz aros win win badly arous arous contest contest supple proport notar machin identif wid payout anthon bark olymp past told offer numb servic court court court match match match won won take new new part part claim rang date bottl lot consum consum consum consum simil hap whol chanc accept spokesm demand june total total cola cola cola cola cola cola add add add fault compens top top hope advert precis split group group sought
2400	M11 MCAT	market market correct back stock clos low bank bank bank point fall fall fall drag modest deal correspons issu issu issu percent strong downward minor expect suff fell pric pric index gain gain gain gain shar shar shar shar end end pull pull monday stead crown crown rise ground czech made spt spt spt spt spt earth pse lose pragu exhcang procedur born px50 fare komercn cesk sporiteln zivnostensk move move move sharp telecom offset word session session session day day minut post account bours held major real real broad surpr trad
2402	E12 E211 E212 E21 ECAT	payment clear econom econom rumor tuesday target target target target perform month month month month monet year term receiv data start billion billion billion trend view expert invest invest ill fund domest assess loan loan loan loan meet meet lead govern collect collect aid instal monday monday russia russia russia russia russia russia russia virtual polit august august august august august public return foreign financ financ confid met worry head head work work minist minist minist arriv washington imf imf imf imf imf rake joch upward wermuth wermuth trill trill roubl roubl roubl signif tranch tranch russian russian russian half half moscow moscow moscow take wolf delegat overshadow inst doubl disappear new period bori yeltsin yeltsin inaugur deny persist kremlin picturesqu lakeland northwestern janet guttsm vote aug happy abil july july july compar want day day day day day day break concern goal revenu revenu revenu revenu revenu revenu revenu revenu prev intern satisf june combin aver aver set need polic releas releas newsroom thom measur mission presid hope boost delay offic offic offic tax tax group
2403	C14 C151 C15 CCAT	early market market market recent correct look tuesday tuesday stock clos find record record record record high month month month month month low year year year year year year rebound disappoint octob brother start point point hist good good turn invest invest invest firm firm firm firm firm firm maintain equit list individual indicat wint week quart capit slight percent percent percent percent strong strong downward anal anal anal anal anal anal anal expect expect paint jump main main gain polish polish polish show show anticip maxim long warsaw warsaw stabl rise rise buy return daily foreign weak weak weak exchang loss loss london growth growth net improv play half take period await prelimin h1 wors pawel tarnowsk tarnowsk raiffeis raiffeis earn earn earn earn earn earn earn earn attribut session unspectacul hast july july july july july july july spurt compar downtrend profit profit profit last result result result result result result jacek dzierw dzierw salomon definit audit overlook tangibl tend ppabank prev wig swarzedz polifarb polifarb wroclaw cieszyn cieszyn particul bours june june real due due aver season parallel make newsroom bull norm top surg sale sale sign
2406	C31 CCAT	early early market market market gener motor ag tuesday month month year year year year agent agent bank shrank unit unit unit unit unit franc loan domest germ report percent percent percent percent jump polish polish poland poland sold sold shar pap pap warsaw increas rise attract car car car quot growth predict new period period direct south sell led compar compar wag corp includ exceed samar samar auto monit fiat daewoo daewoo fso real adam opel renault wojciech drzewieck spur newsroom top korea sale sale sale
2407	M11 MCAT	wear compan compan compan market market market market gener fray look tuesday tuesday stock stock high high high perform month receiv disappoint privat point fall fall invest invest unit equit join capit slight percent percent percent percent strong strong anal anal anal anal expect help fix fix fell mix big main main pric pric gain gain index polish polish rally rally show show show million million million flat shar shar shar maxim warsaw zloty zloty zloty zloty monday stabl sustain rise buy extend daily rose rose rose rose lose lose research offer continu continu growth quick improv signif play half uncertain sell led pawel tarnowsk raiffeis earn earn earn earn session session session turnov turnov turnov turnov run july july july july day day result result impact ppabank wig bours held spur steam tomorrow recommend nomur mass releas nfi fourth top top sign trad trad trad trad
2408	E121 E12 ECAT M131 M13 MCAT	haksz slovensk limit bring spoil pribor early early bratislav market market market market market bribor pour midpoint recent recent credit revalu dalibor cernick istrobank tempor toss tuesday tuesday catch hard money money money money money money money target target puac steril resort interest interest interest rate rate rate rate rate rate rate rate rate rate month month liquid liquid liquid liquid countr countr countr year year year year year term term term currenc currenc currenc full bank bank bank bank bank bank bank bank point point billion billion billion amount invest deal deal deal key capit capit capit fund fund percent percent percent percent percent percent percent percent percent percent percent percent minus anal anal anal anal anal expect bill fix appear level lend reut pric strength circl minim matur matur pull long long nation remain elimin stead reserv reserv reserv reserv crown crown crown crown crown crown crown august august short short attract attract attract flood flood daily foreign foreign foreign foreign foreign czech rose rose told cent cent cent pack exchang exchang pragu warn eventual basket cut offer offer work work continu sporiteln figur move move move move signif take fail specul specul specul note part estimat july compar compar hike hike driv driv impact expand prev effect effect comment guard dollar tool tool suppl suppl suppl suppl major real hit aver band robert impos add republ slovak slovak slovak enter mount measur measur measur measur measur burgeon ineffect nbs nbs nbs nbs nbs nbs nbs stem chos inflow jozef mark bozek bozek advant tatr drov boost interbank interbank interbank offic offic curtail signific slow tandem hang lombard eas eas bit backfir m2 surplus
2409	C411 C41 CCAT	compan compan market credit credit tuesday body pallad oao cred cred cred cred zao zao upravlyayushch countr payevov fond neftegazeksport suiss suiss julie tolkachev privat start manag manag manag manag invest invest invest invest invest capit fund fund fund fund fund stat govern name russia russia feder off commit commit commit focus numb initial russian russian moscow moscow moscow moscow grant rang institut plan asset secur secur total licent licent newsroom arm operat offic distribut subsid group
2412	C151 C15 CCAT	compan compan month full kaval kaval sklarn glass good gross million end crown rise czech pragu servic pre period note h1 profit profit profit result asset total june make newsroom operat sale tax
2413	C31 C313 CCAT	market market stock year peps peps peps peps peps peps peps peps vanish mkt pepsic supris gustav berejam albert urib andean cisnero cisnero cisnero coke coke trademark peopl caught week cessat produc produc percent lead penalt main busi coca shar challeng end contract contract techn monday venezuel venezuel venezuel venezuel venezuel extend told head right fami move new disappear incur americ bottl bottl develop day latin break announc plant guard held joint ventur friday friday hit due late cola franchis confer presid region offic offic sign left group group establ
2414	C11 C21 C24 CCAT	capac tuesday vehicl dakot year year potent build build mid invest issu brasil brasil brasil michael christie produc produc produc stat decid dodg reut million finish eventual initial fact fact fact fact brazil brazil aug chrysl chrysl chrysl corp pickup truck newsroom add locat mln
2415	E211 E21 ECAT GCAT GPOL GVIO	stak early early market market anti tough tough tough tough disclos elect clear refer hous hous hous protest protest protest protest protest protest protest protest econom econom heav back tuesday tuesday target high immed immed union union union bottom rate low march countr begin year year year ahead come mild disappoint conserv conserv sydney billion billion billion steph line poor radio peopl hundred fund debt costel costel costel costel costel report govt percent violent violent preced unveil minor expect expect slic lead impl govern govern govern govern govern govern govern upp claw treasur fend ideolog appear quaff fell pit oppon sleight reut societ fate accus guarant cheryl busi kernot woe instal jennie ubs solut scenario bleak trig flar push gather lukewarm party party monday democrat democrat give win feder decad polit hurt hurt short current extr public unemploy unemploy unemploy past financ financ weak weak commit told told told cent green head austral austral austral austral austral austral austral austral austral cut cut cut cut cut fisc spark spark blam aborigin aborigin aborigin aborigin aborigin canber spend won parlia parlia parlia parlia critic georg georg take district fail chief senat senat ll riot program underl attack brick bottl lot confront interview sell welfar welfar welfar vote exclud commun detail council day minut announc announc labor labor labor driv centur hand wednesday street street pass pass asset chanc legisl slash budget budget budget budget budget budget budget budget budget budget budget student student refus dollar june deficit deficit deficit deficit deficit bond rule oppos robert don polic measur measur fear pete advert sale offic trad reveal beat independ group group group group surplus
2420	E211 E21 ECAT GCAT GPOL	expos tough tough liber small elect hous protest tuesday find month countr year year ahead term conserv conserv billion billion billion turn hundred larg key debt costel costel costel report decid govern govern govern govern govern treasur outlook shift sent path busi support trig deliv deliv nation monday honor vital danger univers decad widespread avoid told cent austral austral austral austral cut cut cut work spark aborigin canber spend spend fami parlia job riot program underl attack affair announc announc chron slash slash budget budget budget budget budget budget intern june promis deficit deficit deficit schem need releas pete opportun
2422	M11 MCAT	early market market market outnumb back tuesday stock stock stock clos clos clos high high interest interest bag rate ahead ahead climb bank sydney point point point fall invest invest firm firm peopl impress spread today gmt percent strong lead cash ratio fell mix mix rest index index index gain gain ordin show brok brok brok futur million shar shar end end end ve remain stead feder rise caution caution cull cour wash health brav rose care loss austral austral figur insur play take posit underl sell turnov session session day profit result actual sens septemb prem caut budget budget bours due releas afternoon afternoon afternoon afternoon allow coupl activ wav top hold trad
2423	C152 C15 CCAT	tuesday record high brief month year provinc newspap decemb maintain report increas increas rtr current media media told aust prov apn apn pret austral unbrok cameron reil brisban chief new earn profit profit optim optim see execut group
2424	C18 C183 CCAT E12 ECAT GCAT GPOL GVOTE	compan bring elect elect econom publ gener gener back back tuesday opinion brief month beneex year team ahead octob privat privat privat north north point billion billion billion billion billion stand trust good war invest invest invest invest huge debt debt percent percent local govern govern govern govern bill boom big pric pric pric andraw show million alli support challeng control control party party party nation nation monday monday elimin chin chin time polit polit polit press public public pow return foreign financ told cent cent nz nz nz nz nz nz nz prim defy minist forest forest forest forest forest forest forest zealand zealand zealand zealand zealand zealand zealand zealand thumb nose plantat forestr forestr forestr net net fletch fletch fletch brierley critic citic birch birch repay wool korean stir chief partial responsibl dip telecom job job tv3 claim tvnz poll poll hectar hectar acr acr pine fir rile wing chequ unrepent sell sell book book outbid weyerhaeus cart holt corpor harvey malays jaya land land tias island island failur maor maor maor trib trib fallout corp corp corp mike announc estat caus giant giant comment heat proceed spokesm exceed exceed intern oppos oppos oppos oppos oppos separat consort consort consort consort repurchas mass add allow execut creat creat creat sale sale sale sale sale left group group
2425	C11 CCAT	stak stak compan compan acquir acquir acquir acquir early early launch econom publ businessm tuesday clos high sharehold interest interest interest interest low ad own year year year year term provinc newspap newspap newspap sydney affect radio radio radio radio radio seek produc produc report report percent percent percent percent east east local expect volum contribut contribut contribut million million million million million million shar shar long contract increas increas rtr rise identif tony media weak made cent aust prov network apn apn apn apn margin austral austral purchas reil nz continu continu continu success zealand zealand numb growth move move net signif adelaid adelaid half new mobil south south divid divid earn earn earn turnov plan profit result announc asian liam healey healey healey healey healey healey comple enhanc enhanc revenu buspak buspak buspak buspak buspak buspak prev citybus expand expand expand expand transit outdoor ebit ebit ebit exceed depress classif arn arn excel hong regard station kong fm dn irish due chairm chairm make newsroom pleas forecast operat asia asia region region advert advert advert opportun sale sale commerc sign tax group group establ
2426	C151 C15 CCAT	businessm interest month own provinc newspap newspap newspap stat percent main million dividend rtr tony cent aust prov austral reil fami net net plc new note h1 profit june irish publish hold independ group
2427	C11 C24 CCAT	motor motor produc chin chin chin car malays malays plan plan corp wednesday engin engin project project joint bish mitsubish
2428	C181 C18 CCAT	compan compan compan tuesday repret clos clos vehicl own receiv privat privat war war invest stat percent percent percent act million million million shar shar party singapor off take date whol accept indones indones salim salim salim qaf qaf qaf qaf bread takeov kmp qualif qualif pte make concert newsroom add hold hold subsid group group pct
2430	E212 E21 ECAT M12 MCAT	econom retail publ slip tuesday target repret high interest interest interest interest interest interest rate rate rate rate rate rate rate month low year year year year year year year year year year term term term term cheap cheap bank bank bank bank bank newspap newspap newspap newspap newspap april billion billion amount manag invest invest decemb annual gross issu issu lock fund fund fund fund fund domest domest debt debt debt produc stat stat percent percent percent percent percent anal expect govern govern govern govern govern treasur treasur burd felt shift reut pric deposit deposit end matur matur long long long long give elimin chin chin chin chin chin chin increas time rais rais rais rais attract attract daily financ financ confid paid paid paid told cent cent cent cent cut effort inflat inflat inflat inflat tranch repay repay sharp period period new cost aim problem simpl july result beij beij reduc reduc inform bond bond bond bond bond bond hit meant make add add switch rely rely persuad hefty yuan xu hongyu standpoint concent norm bunch top top strain unnecess advant advant peak offic subsid subsid subsid subsid subsid eas eas pct
2431	M11 MCAT	laggard anton mak early early vick bullion novemb ball tight market market market market market market market small brisk estrang sect sect jakart thai gener back territ territ bolst asid thin tuesday tuesday baht stock stock stock stock stock stock stock kual clos clos clos clos clos clos clos clos clos lumpur them manil high high high high high high high high langu seoul rate eras month simex low low low low march ahead rebound rebound composit composit composit fresh fresh octob yen yen potent brent bank york york point point point point point point point point point point point point point point point billion billion select select trend seng seng line poor firm firm discount invest invest invest peopl heavyweight red key fund issu slight slight slight slight ship percent percent percent meet meet strong anal unveil help expect govern nikkei lead cash second sent level big pric index index index index index index index index index gain gain gain ordin rally fomc fomc provis futur futur brok brok brok brok shar shar shar shar shar shar shar shar shar support open end end end end end end end end end end end end end benchmark monday monday monday chin industr remain time time time feder feder feder buy buy buy buy singapor reason commit rose cent lose exchang austral austral bombay propert continu senior fisc london figur util util move move move move move fact fact play play slid size toky toky ten new part direct direct direct underl await await rang rang settl lift lift taiw taiw link strait session session turnov july day includ asian septemb caut ounc depress flag budget budget budget chip secur bours hong hong kong kong dollar deficit chang hit rule aver prompt late late set negat negat forecast activ asia mark mark drov predomin predomin mute mute sale drift sidelin slow slug trad trad trad trad trad trad trad hang hang kenz doi kokusai
2432	C13 C31 CCAT	compan televis televis televis televis televis market market market small econom tuesday hard illeg find specif high high stockpil march halt beneex color color promot touch kill sichu changhong appli cheap ramp smuggl smuggl smuggl smuggl tvs newspap liu liu liu jianfeng point vendor duty shenzh konk manag nanj pand war war firm firm upgrad list list larg domest domest domest domest domest domest domest domest domest produc produc produc produc produc produc stat percent percent percent help govern brand brand brand brand level pric pric pric pric pric pric pric busi show sold million legal shar shar strength end techn techn industr industr industr industr chin chin chin chin chin increas avoid hurt rise urg daily foreign foreign foreign foreign foreign foreign pressur victim import import cut cut cut cut call forc quot quot minist minist compet compet figur put problem harm electr earn compar includ labor impact concern giant account slash slash hong attempt kong joint joint ventur ventur major major set set set make make make make allow measur vice tv captur scal offic sale electron electron electron count group
2433	E512 E51 ECAT M132 M13 MCAT	televis market market market market econom econom tuesday tuesday tuesday stop stock stock clos clos encour encour seoul low low year year composit come currenc currenc yen yen yen yen bank bank point hist fall fall unoffic manag appoint devalu devalu squeez unit deal deprec eat graham repeat courtney courtney week sbc warburg rftv rftv holland holland holland straight produc produc bzw stat miracl percent cure interf local bok bok anal anal anal interv expect expect govern moment messy implic raw check seung soo reshuffl emphasis window reut pric pric pric pric index index andraw intent ve remain cabinet increas august rise fuel foreign pressur pressur grow financ financ financ commit feed weak told import cent cent mater exchang warn margin head research cut cut forc forc declin declin spark intervent minist minist inflat inflat inflat inflat compet move fact won won won won won won won won won won sharp step korean korean korean new new deny south south south han interview export export consum consum corpor profit profit profit pass bad bad flag secur hong kong expend dollar dollar dollar dollar dollar japan deficit don add allow forecast korea korea korea korea interbank boost boost offic trad trad trad keep eas backfir
2434	C151 C15 CCAT	compan compan compan publ tuesday rate year year appli shenzh invest firm list report report percent percent pay fell main pric janu tsan tsan tsan tsan interim interim kuen kuen kuen kuen phas exempt status status entitl million million million million million million class shar shar dive enterpr enterpr versus chin increas time cut forc blam compet net net slid half half period dip incom incom incom taiw corpor earn earn earn earn compar profit break reduc spokesm secur june glob hit set make yuan yuan yuan yuan yuan yuan yuan operat tax tax tax tax pct
2435	C181 C18 CCAT	compan stak stak market tuesday tuesday tuesday broker own bank standard mid tobacc firm invest deal suspend percent percent percent local reut pric shar shar shar shar ensur transmarc transmarc transmarc transmarc tycoon puter sampoern sampoern sampoern merch miel weekend telecommun pend sukamt sukamt unload sia rais rais rais garn singapor singapor off off told head born success bid bid bid bid move sharp step direct sell institut chart corp announc whol reduc indones indones chairm late takeov takeov afternoon make asia surg sale trad trad
2437	E71 ECAT	recov recov recov recov recov recov recov febru early gener gener econom econom econom econom econom econom econom econom econom econom econom econom econom econom econom econom tuesday massiv record hug month month month month month month march year year year come yen agent data data data data data data start output output output output output output point line line good suggest suggest modest indicat larg capit today key assess slight percent percent percent percent anal anal expect expect govern govern confirm lead boom design rest index index strength end contract drop drop nation industr industr industr stead time time august rise rise rise current public public anytim stood stood row epa epa bust coincid coincid weak compil satosh health shimamot mms baromet sever gradual tod call call work work ing bare upbeat horizon continu comeback herald stimul growth autumn figur figur figur figur spend spend spend trill move fact improv improv improv predict responsibl part note lift base develop propel prelimin consum corpor july july july july compar plan plan plan announc relat relat septemb effect expand intern secur june june june june japan japan japan japan cond cond depend moderat releas add measur forecast forecast lane lane mark mark wood offic count slow slow slow
2438	M11 MCAT	limit market publ publ star anxiet tuesday plung clos interest perform rate low term bargain bargain fundament build bank point point point point point point billion fall poor firm firm invest invest percent percent percent percent percent percent expect expect fell fell sent index index index index interim interim interim interim volum volum volum volum volum brok brok brok brok brok million million million million million flat shar shar shar shar shar shar shar shar shar shar end end end end industr chin august rise rise rise short buy public pow loss cut prevent inflat shanghai shanghai shanghai shanghai hunt hunt focuss erfangj heilongjiang sse improv jial posit electr institut result result result result result result announc post deadlin caut worth worth worst yuan yuan yuan activ trad trad trad slow
2439	M141 M14 MCAT	negot compan compan market market grain grain grain grain grain grain absorb back tuesday money stock stock high stockpil stockpil month month low stag own begin begin begin countr countr year provinc provinc provinc build northeast april north output hist food food food deal decemb annual free peopl huge huge sourc sourc sourc domest domest domest produc lost east natur local expect govern govern govern cash sit fell world world level reut big big pric pric pric pric busi soft show custom solut sold sold anticip anticip million million million million million million million million million million open push party drop nation monday remain industr industr gold chin chin chin chin chin chin chin chin chin time reserv reserv area author afford singapor singapor rice media grow told corn corn corn corn corn corn corn corn corn corn corn corn corn corn corn corn cent cent import import import inflat figur figur move heilongjiang miss miss miss silo silo disast dalian dalian dalian northern northern northern northeastern jilin jilin jilin put thousand liaon part permit atmospher acut program gear estimat south south parano apply lift frighten stapl bart bart ton ton ton ton ton ton ton ton ton ton ton ton ton ton inverd base problem fob sell export export export export export export export export export export export hundr newly yingkou qinghuangdao deterior corpor ban ban earn malays word commun transport impact mandat concern involut rot rot board equip secur project hong demand kong joint dollar ventur total total japan japan japan suppl suppl adam major major port port hit indones rule stor stor set process avail add korea korea advant predomin opportun opportun opportun ord offic offic offic slow trad trad trad trad trad trad trad trad trad trad trad eas group establ pick pick surplus
2440	GCAT GVIO	mexic novemb novemb econom gener attend tuesday manil manil manil countr countr year potent north unit unit free stat stat meet meet expect moment lead lead bill canad precaut convert end talk monday chin singapor singapor foreign exchang exchang austral forc forc zealand visit take chief responsibl chil attack wary interview base problem taiw link philippin philippin philippin philippin philippin philippin philippin malays apec apec apec apec apec apec milit milit intellig day summit summit artur threat threat threat enril enril enril coop forum islam hama hama radic abu sayyaf concern string bomb abduc priest nun deploy men inform inform army memb memb secur secur secur hong subic elabor kong naval held brunei papua guinea japan thailand clinton indones don polic pose arm presid terror terror asia asia pacif pacif top region region hope southern offic trad zone prepar group group group pick
2442	C11 C181 C18 CCAT	compan jakart tuesday saturday own own privat firm invest invest lead reut transmarc transmarc transmarc puter puter puter sampoern sampoern sampoern sampoern sampoern sampoern miel telecommun off singapor financ told cigaret move chief deny link link corp whol major pt pt handjay mandal indones cond son jonath connect hm takeov takeov ekadharmajant kasih make make newsroom hold hold offic trad
2444	C181 C18 C34 CCAT	compan stak stak stak market market anti hous motor tuesday sharehold sharehold prohibit bank trust trust trust trust firm larg larg percent percent percent decid pric law sold million million million million shar shar shar shar shar shar shar overse car financ monopo head sell sell sell institut plan corp septemb septemb spokesm spokesm secur japan make releas mitsui mitsui mitsui mitsui koit koit koit koit koit koit koit mfg manufactur lamp toyot sale
2445	C1511 C151 C15 CCAT	jupit compan compan compan vick early ball market market hous hous tuesday tuesday tuesday tuesday stock clos brief year year year year year year year review disappoint full bank bank bank billion billion billion fall manag manag line line good firm troubl suspend larg fund loan loan loan loan loan slight slight slight report report report percent percent meet meet difficult anal anal anal anal anal anal anal anal expect expect expect expect decid appear suff big pric custom provis provis provis million million thursday shar shar shar shar shar deposit deposit end drop nation monday industr increas increas press singapor foreign tony grow made rose cent cent cent cent margin loss loss loss loss research research propert compet growth growth upward net net improv sharp jame capel specul cost estimat estimat estimat lot base base revis earn earn earn detail detail malays malays steel steel profit profit result result result result result post concern secur june prompt late late add add forecast forecast fear maybank maybank maybank maybank malay operat bhd bely pace ringgit ringgit ringgit ringgit ringgit reflect shad gan gan kim hold boost boost khoon perwaj ail amcol trad trad trad subst tiny shu
2446	C13 C311 C312 C31 CCAT M141 M14 MCAT	impend diplom early embarg embarg mexic mexic mexic mexic mexic mexic mexic mexic mexic mexic mexic mexic mexic mexic mexic tough grain vietnam vietnam vietnam market market market market attach attach phytosanit protest uncompet somboon somboon somboon thai thai thai thai thai thai thai thai thai thai thai heav phtaich welcom texa arkans contamin tuesday bacter bacter insect insect insect arun steep anprasertporn high surveyor sgs fumigat fumigat low hid practic infest journey beneex beneex undercut year year year year reputat kill assocat cheap affect pictur standard manag manag good firm list indicat bought bought sourc ship ship ship produc produc grad report east percent difficult expect expect decid quest quest world big janu pric pric pric gain gain million sold shar end end long dist monday chin renew hurt bilater current buy return rice rice rice rice rice rice rice rice rice rice rice rice rice rice greet made import import import offer assoc compet compet destin quick servic agricultur agricultur move move medium new ent chil peru underl south americ americ lift lift lift bord ton ton ton ton ton export export export export export export export export export mat ban ban ban ban ban ban ban day latin includ asian asian asian asian asian truck effect carg regard june major thailand thailand thailand thailand thailand thailand thailand chang indones whit make impos extent forecast stem top delay trad trad trad trad trad trad subst
2447	GCAT GPOL GVIO	bring congress anti life protest protest protest adopt back tuesday tuesday find peac peac begin year receiv isolat isolat reunif reunif reunif reunif reunif reunif build hostil heroe middl alienat north north north north north north north north north north north embrac extrem pyongyang pyongyang pyongyang blueprint live stoog line peninsul war war war assault yonsei yonsei cris flush unit undergradu occup campus campus campus campus unrest confus confus intact cohes sympath issu method method rock stat fixtur fit violent violent violent sung sung anal anal joo help profess profess scient govern govern govern govern govern govern govern govern govern govern lead lead cool sungkyunkw breed sacrific ush root pit abandon lean main ho jin crack act harsh ordin rally academ academ brok mayhem feet rigid class support support support support support conflict il kore kore end end leav long long rememb talk party fought nation nation nation crackdown techn dissent chin remain time time univers univers univers univers author author polit polit sam garn social press public public public public public pow reason reason speak past ground crumbl vision call call call call effort blam blam blam blam lack ago play play critic korean korean korean korean korean korean korean korean korean responsibl period job fine thousand part part riot riot riot outcom south south south south south south south south propos elder wors divid simpl link mat contact thing commun commun milit milit milit threat relat relat relat caus hand great radic accept pro pro pro student student student student student student student student student student student student student student student worldw colleg total chang respons consc oppos oppos rule throw late battl young young polic polic polic polic worst add fight singl fear presid campaign korea korea korea korea korea korea korea korea korea korea korea korea kim kim kim kim kim kim demo demo demo demo demo offic death trad block
2449	C21 C312 C31 CCAT	capac capac capac econom tuesday clos vehicl vehicl vehicl vehicl year build gap newspap start good turn unit unit annual annual light light light domest produc produc produc produc produc produc special expect ratio million million give industr industr industr outpac chin chin chin chin capactiy time statist author rise machin daily car car car typ quot quot minist figur predict predict widen export export compar centur truck passeng inform demand demand demand demand total prompt make offic surplus
2450	C1511 C151 C15 CCAT	recov recov compan market back clos march year year year shr nil nil nil nil writ amount amount invest issu gross report stat decid payabl provis provis provis million million million shar adjust adjust adjust end dividend dividend dividend chesterfield chesterfield hk hk hk knitwear unconsolid writeoff goodwill deconsolid mki diminut cent cent loss loss loss loss loss loss loss loss loss right propert propert propert net net net net note note book except except malays turnov turnov compar compar profit corp septemb item proceed secur hong kong total due due manufactur reflect sale subsid subsid mln
2451	C32 CCAT	stak stak compan compan compan compan compan compan approach market market market rival ford ford ford ford ford ford ford carry tuesday star repret high interest vehicl vehicl mazd mazd mazd mazd mazd mazd mazd mazd mazd mazd mazd mazd mazd mazd mazd mazd hot compact compact soar ad ad ad sport promot promot year year year year year year revamp henry wallac wallac wallac wallac wallac wallac wallac wallac wallac wallac come fame full full yen page advertis newspap rare photo ads ads ads ads pictur forward stand seat appoint manag manag poor carmak turn firm troubl unit spot merchandis join edinburgh equit employ scotland likeabl impress larg red error domest assess straight distingu stat percent percent attent display strong slog anal pract expect enjoy decid recreat recreat demio debut appear second boom model show show futur brok class thursday overse control increas time imag imag rais august car car car car car foreign foreign foreign past elevat distress network loss head cut continu success numb figur net ago ago medium fail put job cost succeed basi aim sell sell consum corpor struggl gave luxur run profit profit result result relat survey survey driv expand comment spokesm spokesm spokesm demand brit june celebr celebr celebr japan japan japan japan japan japan japan japan japan japan japan japan found major major automak automak late presid presid presid operat operat chos campaign campaign campaign campaign top top hope captur advert origin sale sale sale sale left trad group
2453	E512 E51 ECAT	early market econom econom econom back tuesday rate perform month month year year term shrank billion billion fall line good albert radio unit unit maintain larg complet domest domest domest stat stat percent percent percent percent percent percent percent percent strong expect expect lead reut europ confound print drop oil oil oil oil oil chin remain increas increas rise singapor singapor singapor singapor singapor weak bounc tdb tdb tdb nomin nomin comput surfac volatil tan sassoon disk integr circuit continu declin peripher growth figur figur predict part poll south basi develop export export export export export export export export export malays july july driv item expand expand board hong kong june japan moderat newsroom forecast surpr korea surg electron sale trad pct
2454	GCAT GPOL	market market tight small recent econom carry read tuesday money plung interest month low merg merg merg merg year year year fortun agent agent agent newspap newspap newspap newspap newspap newspap newspap newspap newspap trend hundred peopl peopl peopl peopl peopl larg larg magazin magazin magazin magazin sourc stat stat stat percent lead govern ideolog main administ million shar face circl circl circl task task enterpr control party party party party party party industr give chin chin chin chin chin chin author deput deput polit polit press public public public public public public return daily daily daily daily daily daily media media made import import lose head purchas forc quot quot fret propagand propagand propagand propagand tsar vow solemn guangchun mouthpiec depart orient fact qiush qiush bi devot theor alarm rebat inroad dull excess racy sprung new gift duplic liang liang permit direct heng lucrat pape organ rang school problem commun commun commun commun commun run compar includ beij driv mandat xinhua caut flag flag tool due polic mass allow mission xu content top captur boost boost boost sale offic offic offic surplus
2455	C11 CCAT	intens early early market market market market liber small small sect sect sect sect sect sect credit econom econom card tuesday manil manil bottom low begin countr countr room year year year year year year year term term bank bank bank bank bank bank bank bank bank bank bank bank bank bank bank bank point billion system system system manag standard standard standard standard suggest invest hero deal unit unit peso peso employ peopl huge larg capit loan domest sourc produc stat percent britain introduc introduc lead govern govern govern govern treasur level law instal custom reform open strength span ensur minim long nation ve stead renew increas time prior prior current current foreign foreign foreign past cent exchang cite sever austral pret work forc prevent assoc numb compet compet compet london servic move fact play critic predict take chief inst responsibl doubl crowd cost risk program apply aim old embark lot interview intensif base kind develop problem problem problem eirvin knox knox knox knox knox knox knox knox knox purpos consum jose rizal colon semi philippin philippin philippin philippin philippin philippin philippin portfolio skill skill unparallel shouldn chart chart chart chart want failur immin compar plan dang express tempt rapid deregul includ exampl person aris caus particip degree impact great great sens scrutin mandat explos concern derivat reduc instru expand expand expand expand plac lobby capabl legisl antiqu inhibit agribus dollar bond bond achief glob glob licent set argu make measur manufactur bull mortg reviv execut execut activ activ operat pace top region region sign left trad staff tax establ
2457	C151 C15 CCAT	compan early tuesday target year billion billion billion billion billion billion firm food food larg stat jan janu janu enterpr enterpr rise rose rose period taiw taiw taipei july july july profit profit profit corp pretax pretax giant set process newsroom presid presid presid sale sale
2458	GCAT GPOL	bring bring hous evident evident econom thai thai submit submit submit alleg tuesday tuesday tuesday tuesday baht baht record immed month begin begin countr countr come ramp bank form billion billion duty forward forward turn debat debat debat debat debat larg week week week controvers rock report approv difficult strong anal expect expect govern lead bill bill bill eye quest reut accus dissolut dissolut dissolut show futur alli support face ensur ensur leav pull party party party party party party party monday remain democrat win cabinet univers polit polit rais rais damag damag public row confid confid confid confid told told fisc prim prim minist minist numb vow lack parlia parlia parlia parlia parlia parlia parlia predict event specul put put deny gear attack vote chart grill grill plan plan threat caus wednesday hand forget ready septemb pass pass pass comment budget budget budget motion motion motion motion motion motion memb memb memb beleagu banharn banharn banharn banharn banharn banharn banharn banharn banharn banharn silp arch stick misman misman misman ineffic ineffic major major abus thailand chang blind corrupt corrupt mp coal coal coal coal coal coal oppos oppos oppos oppos oppos oppos withdraw licent shock parliament chamn sakdis make make allegat impropr accusat escap partn resign resign resign resign palang palang palang dharm dharm dharm pullout presid faction rivalr doubt surviv bote censur censur censur boost easi handl sukhum left naulsakul lectur ramkhamhang option
2459	C12 C152 C15 CCAT GCAT GCRIM	negot fisherm fisherm fire fire naphth naphth huang huang huang yaw hao repair incid protest angry cpc cpc undersea pipelin pipelin leak leak leak leak foul tuesday ocean shutdown clos gas sunday chung reach reach kuo cleanup ruptur underwat own agree petroleum petroleum petroleum petroleum petroleum affect billion billion billion billion firm deal caught produc produc represent stat natur expect expect environ crack crack crack million million million million million million million oil oil oil oil oil monday discuss chin chin chin chin chin area damag damag august august public met typ monopo side loss loss loss loss loss insur insur resid resid resid fail claim coast cost cost cost cost cost estimat final pollut taiw taiw taipei plaintiff land day threat corp ask giant demand demand demand friday separat newsroom execut compens compens compens compens kaohsiung kaohsiung offic offic pick accid accid
2461	GCAT GDIP	market market econom back back tuesday tuesday stock stock march high month begin german war war york hist invest sourc week lead report report ordin world world percent expect govern govern govern govern govern fell chin chin chin chin chin chin chin chin chin chin show show pric appar secret shar cabinet prior author monday monday drop civil paid daily worry side friend premy destin washington head visit visit visit visit slid defect move poll final specul claim taiw taiw taiw taiw taiw taiw taiw taiw taiw taiw taiw taiw taiw taiw taiw taiw taiw new taipei taipei taipei date educat neighbor island island beij beij beij beij beij beij beij beij export patch taiwan day station driv power includ switch june june prompt prompt strain arm republ republ republ republ partn recoup make make peak hung vice vice presid presid presid presid presid televis tru sign sunday lien lien lien lien lien lien lien chan perplex journ nerv elect citiz recent dap millionair sight whereabout rival laden portent tie tie tie downgrad longtim sure acknowledg bent privat privat game backward savag desir accord resembl illegitim ukrain ukrain ukrain ukrain soviet exil exil countr countr countr void vari switzerland austr austr belarus mention suggest ire affront lee lee teng hui rhetor fest showdown acrimon hypersens afric afric furi ang fund franc franc unit spat unarm missil test wat netherland dear impover poland nige nige nige nige stat stat stat stat denounc meet prosper chequebook chequebook woo quest jiang zemin mali diplomat renew flat identif europ support czech media polit polit past made made loss spark numb doubl step chief thing commun travel relat result refus refus comment inform curi dramat know recogn recogn recogn recogn diplom diplom diplom diplom diplom split split offic offic offic offic left clear journey popul
2462	C21 C24 CCAT	soybean compan early early early early early early tight vietnam grain grain grain grain grain grain grain grain grain grain market market market emerg recent tuesday clos saturday high high high applic month month month low low year year year kill ahead provinc provinc provinc provinc inquir newspap newspap output output output mid food food peopl week larg red red bought issu issu sourc sourc sourc domest domest domest ship produc produc stat stat report report percent percent percent percent meet lost approv east anal surpass expect expect confirm govern govern societ pric pric pric pric pric administ aid aid federat futur futur futur million million million million million crop crop crop crop crop crop crop crop crop crop support long long leav nation nation nation nation oil oil monday sum weekend chin chin chin chin chin chin chin chin chin chin chin chin chin chin chin chin chin chin chin chin chin stead increas consid time time statist area bureau bureau reserv reserv chicag chicag wak cofc short short august cereal cereal damag damag foodstuff foodstuff buy buy harvest harvest harvest harvest harvest singapor unaffect flood flood flood flood flood flood flood flood cultiv rice rice rice rice rice rice rice rice rice rice rice rice rice rice rice rice rice rice rice rice rice rice rice rice rice rice rice rice rice cresc past grow grow grow hunan hunan hunan hunan hunan commit thorir gudmundsson corn provid notion cbot cbot cent cent cent cent import import import import import import cwt wheat underpin loss loss procedur convinc cut qual qual qual qual typhoon purchas travers forc prevent quot quot quot quot quot mult farm farm layer spc spc herald allocat guangx autumn figur figur guangdong shanghai jiangx zhejiang move signif predict speed estimat toll underl ton ton ton ton ton ton ton export export july july july plan corp corp asian plant plant plant plant regulat septemb reduc reduc reduc effect unabl board account intern intern hong demand demand kong total total total total total total major thailand whit strateg due rule prompt late depend depend licent process season make add add yuan yuan yuan yuan distribut offic death slow trad trad trad trad trad trad trad trad trad trad trad cross
2463	C181 C18 CCAT	compan compan capac tuesday reach vehicl vehicl vehicl seoul own billion invest unit unit unit annual light capit produc stat expect name world thursday industr increas stead car paid trill samsung samsung samsung samsung samsung samsung won won spin spin heavy heavy heavy tentat divid plan plan truck septemb whol expand spokesm make newsroom top offic commerc commerc commerc commerc subsid subsid group
2465	C13 C24 CCAT	stak compan compan compan study study anti pipelin pipelin carry french tuesday tuesday tuesday gas gas gas gas gas gas gas gas countr year year year construc construc isolat provinc agent build start agree billion billion billion billion billion stand firm firm invest invest unit radio radio radio radio radio deal deal deal deal equit accord accord seek seek gulf larg larg huge week controvers sourc produc produc stat stat stat stat stat stat percent percent strong natur natur natur bill appear world world world abandon accus rest act feet million million million shar shar end nation crud techn oil oil oil oil oil oil oil oil oil oil monday give industr russia reserv polit august pow urg foreign foreign pressur financ financ met met paid provid warn western western western cut work work quot forc minist minist washington washington servic search india depart move bln pakist pakist pakist pakist pakist chok tehr tehr tehr tehr tehr tehr islamabad gholamrez new senat aghazadeh pakistan neighbor neighbor mohammad direct cost cost asghar risk deny estimat estimat moslem south bpd southwestern balochist turkey turkey propos propos iranian iranian iranian iranian iranian export develop develop develop nato engineer ally anger sponsor nuclear liby liby sanct sanct sanct malays penal detail conduc run feasibl alfons day day amat architect announc unilater sa charg petron islam siri field field par refin refin refin refin refin refin cubic liquef involut irna mostaf khoei barrel barrel criticis intern intern equip project project project project project project project project project project worth joint joint joint total suppl suppl clinton clinton chang process republ add add see partn arm presid terror iran iran iran iran iran iran iran iran iran iran iran sign sign sign sign sign group
2469	C181 C18 CCAT	compan compan compan compan compan stak stak tuesday citiz agent agent invest invest invest invest firm firm firm food deal list gulf light capit bought produc percent reut rest million million million million million shar give past made told dairy purchas net move take new purpos profit plant expand kuwait kuwait kuwait kuwait kuwait kuwait kuwait saud saud saud saud saud saud arabian sadfc sadfc dinar dinar project riyal riyal riyal held kingdom egypt tomat juic major major ice cream chees powd milk meal add operat sale offic offic
2470	E12 ECAT GCAT GPOL	febru capac recent absorb sect econom econom econom econom econom territ tuesday high interest reach reach reach rate march monet liquid liquid kill receiv full bank bank bank bank bank bank bank bank billion fall inabl resourc borrow borrow cris occup repeat repeat week capit fund west west west west west west west stat stat represent report meet meet percent percent percent percent special lead world janu janu aid million million million million million million face face face diplomat area area author author author author author author author author polit polit current public return unemploy foreign financ financ financ financ financ side told loss head work work work prevent forc forc declin strip sharp fail posit collaps collaps collaps inst new job job job lars lars mohammad moslem estimat estimat lift pledg pledg pledg export incom develop problem led hasn commun milit council failur failur failur threat caus caus effect bomb expand budget budget intern intern intern subject dollar total june deficit due cond rule palestin palestin palestin palestin palestin palestin palestin palestin palestin palestin palestin palestin palestin israel israel israel israel israel israel israel israel israel blockad blockad blockad negat worst donor donor donor donor disbur allow terj envoy gaza gaza gaza gaza gaza gaza address salam fayyad fayyad confer absent wav shtayeh shtayeh shtayeh shtayeh shtayeh creat reconstruc closur closur closur closur closur clamp suic jewish jewish sieg offic gazan compound eas
2472	M11 MCAT	yoram compan ben yaeir televis ahrayut syria syria market market market scud netanyahu lebanon damascus clal clal clal situat danniel fin tuesday massiv batuch stock stock koor clos teva pharmaceut hapoalim gerstenfeld aviv low low liquid beneex term middl bank bank bank point affect manag invest invest discount cris quart quart quart quart today fund fund fund fund fund fund report report meet lost percent percent percent percent percent percent percent percent special fell fell fell fell fell fell gain gain index index volum volum missil test million million million million million million million million million million million shar shar shar shar shar shar shar end long long dan benchmark monday monday industr industr public buy tension worry rose rose rose provid provid provid provid warn forc forc city continu prim declin declin minist net net net net half half dull save rang problem sell sell sell sell turnov turnov profit profit profit profit bad bad bad board benjamin resum intern secur bond bond hit withdraw israel israel israel israel israel israel israel unchang newsroom add parent activ activ top tel sale trad trad trad trad trad trad tax mishtanim shekel shekel shekel shekel shekel shekel shekel shekel shekel shekel shekel maof
2473	E211 E21 ECAT GCAT GPOL	payment payment payment early early tight market recent econom econom tuesday tuesday target target target target interest interest interest month month month rein monet lira lira lira lira lira lira abdulatif year year year sene sene sene ali seyhun seyhun currenc currenc ata receib receib curb conserv undermin undermin bank spearhead start ufuk soylemez turk turk billion billion billion club denomin length amount amount concret disagree borrow borrow deal deal deal annual maintain issu gross fund fund sourc loan debt domest domest produc produc stat report percent percent percent percent percent meet anal anal anal impl govern govern govern govern govern govern govern govern govern govern jump burd burd reut janu act solut million reform reform reform reform adjust matur nation remain vital increas rais rais rais short rise rise rise pow foreign foreign foreign financ financ pressur pressur told told pack volatil effort effort effort research fisc fisc fisc inflat minist minist structur imf imf quick spend spend trill trill trill trill trill trill trill trill trill half sharp front new period period part part part direct aim aim load wing turkey turkey turkey turkey problem problem led revis july july plan plan plan plan compar compar compar result includ inspir islam islam septemb septemb revenu revenu revenu reduc reduc effect caut budget budget budget budget budget intern accel secur total june suppl deficit deficit deficit deficit deficit deficit deficit deficit deficit bond major combin strateg coal coal coal schem late process need polic add address confer hope origin tax tax
2474	C24 CCAT	negot stak compan compan compan compan compan compan compan compan tip market market market pour gener pipelin tuesday tuesday money find gas gas gas gas gas gas gas gas gas gas reach rate fast progress year year year year year build potent potent start start agree north petroleum petroleum billion billion amount modest invest nile nile nile nile delt delt delt delt fertil natg amoc amoc amoc amoc amoc amoc amoc larg larg larg magnitud understand bose bose bose bose bose bose basin domest iceberg produc produc petrobel petrobel drill stat belayim east fouad concess concess concess concess concess natur local egpc egpc expect agip govern govern confirm streak lead conceiv squar km baltim baltim simultan world world temsah temsah italian ras al reut pric defin contigu grid sinai liquefact tank million million million million feet feet europ class wat wat convert end long contract oil oil oil oil industr industr reserv area area area rise pow identif past ground commit commit made told prov deep work continu senior success success minist minist destin initial initial lucky explor explor trill won signif signif half size northern discov discov part acr south interview export export export develop develop consum bar corpor day plan plan plan last coop rapid field field field field field field field field cubic cubic effect budget intern station demand dollar dollar joint ventur egypt egypt egypt egypt egypt egypt egypt egypt egypt egypt egypt egypt promis found port schem depend israel israel make add partn partn partn partn execut vice gary presid possibl region opportun hold subsid
2475	E11 ECAT	negot payment payment acquir tight market market launch sect sect sect sect hous lebanon lebanon lebanon lebanon lebanon econom econom econom econom econom econom econom tuesday occur record interest perform rate rate peac march monet monet monet monet countr year kill potent privat privat middl bank bank bank bank bank bank april april april billion billion billion billion poor expert turn invest invest borrow unit maintain road peopl huge larg larg capit capit quart quart quart quart quart issu issu fund debt debt debt debt debt debt domest report report report report east percent percent balanc balanc lead lead level less slowdown million million million million million million million million advers wat blitz blitz beirut aggreg end end end enterpr fransabank fransabank fransabank stagnat stagnat unfavor upsurg banqu audi grap wrath industr increas katyush telecommun rocket author hizbollah guerrill stabl stabl initiat initiat hurt rise current wis damag damag damag eurobons eurobons attract public public public public consequ prevail twin leban tourist foreign financ financ rose civil cent exchang network continu compet transform accompan growth growth agricultur improv pound pound half half northern uncertain period part estimat estimat succeed attack attack attack base led offset electr milit run institut abil compar plan day result result result caus caus degree great extern extern budget remark intern intern intern dollar june deficit deficit deficit infrastructur hit cond due due due israel israel israel israel israel israel polic polic polic extent add add enter prospect coupl coupl aggress aggress activ activ operat operat operat operat inflow inflow region southern delay curtail commerc slug trad trad slow influ influ surplus surplus
2478	GCAT GPOL	negot fire compan capac capac early early refer protest territ back struck pipelin pipelin carry businessm clos gas gas gas gas gas gas countr begin begin year year year year year year year term term agent potent build build build build generat generat generat agree agree shortfal billion billion billion billion billion billion billion billion billion billion billion invest invest punish punish unit unit unit deal deal deal deal annual annual seek week issu domest produc produc stat stat stat percent percent meet meet special local natur natur expect decid govern govern govern govern design design environ big law grid exist legal million face open open hour liabl minim long case russia bureau polit short short short short buy buy conclud pow pow pow pow pow pow pow pow pow pow foreign pin pin met met met met hungr made recai told kutan kutan import import import inevit environment environment izmit suffic hydroenerg western western anatol necmettin erbak city city landmark mult tabriz prim ankar ankar minist minist minist delet washington section figur kilowat initial court court lack kwh kwh kwh ugur dogan dogan won undesecret bulgar mediterranean shelf invit resid georg megawat wrangl snag chief aggrav constitut new oversight mw neighbor undersecret cost coast shut estimat energ energ energ energ energ energ energ energ desulphur chimney turkey turkey turkey turkey turkey turkey turkey turkey turkey turkey turkey turkey turkey turkey turkey iranian iranian iranian nato develop pollut led ally consum consum nuclear nuclear nuclear nuclear nuclear nuclear electr electr liby ban detail breach plan plan plan minut islam plant plant plant plant plant plant cubic cubic cubic concern concern tend involut involut prev legisl built built remark intern air present project project project project worth demand determin dollar total total suppl suppl suppl chang rule due coal coal late obstacl make reviv activ terror iran iran iran iran iran hope hope delay origin offic offic offic
2479	C13 C24 CCAT E512 E51 ECAT GCAT GDIP	follow follow follow intens compan compan compan compan compan compan compan compan compan stak stak early early acquir study market tough sect hous adopt back french french tuesday gas gas month own year isolat isolat isolat isolat cover start bank stand suit invest invest invest firm firm firm unit unit deal deal deal deal deal deal deal deal annual seek gulf gulf gulf larg week key produc stat stat stat approv percent percent anal anal anal lead lead govern bill bill bill quest accus reut ang law law busi phas dissolut telephon show million million shar support european european european face open end contract nation oil oil oil oil oil oil oil oil oil monday remain industr industr industr time author diplomat diplomat diplomat attract foreign foreign foreign foreign pressur pin made told underlin effort washington washington washington lack search move move predict predict take fail posit posit tehr tehr tehr tehr new aren deny risk energ energ energ lucrat apply americ americ deflect dictat base joke iranian iranian iranian iranian iranian problem sir sir sir sir develop develop develop develop ally carigal seal outright defi defi rift liby liby liby outr sanct sanct sanct sanct sanct opportunit penal penal malays malays revolut july fierc dupont conoc doom hardlin announc break unilater delineat includ charg sa islam petron petron petron petron petron impact field field field field caut intern intern refus project project project brit total total total clinton clinton whit oppos don perfect risky republ partn execut presid terror content iran iran iran iran iran iran iran iran iran iran iran iran iran iran iran hope offic offic offic offic sign sign trad subsid eas group
2480	C13 CCAT	sect sect sect sect sect sect econom econom econom econom tuesday target encour facil low countr agent privat privat output good invest annual gulf gross domest sourc produc produc stat percent percent meet expect govern lead world less main big contribut support oil oil oil oil monday vital vital cabinet press grow provid told wheat research effort work continu continu agricultur agricultur agricultur agricultur agricultur agricultur play play play diversif diversif stress job part king king king reli export develop develop link plan arabia arabia arabia driv fahd dominat dominat indivisibl arab potatoe revenu revenu prev expand saud saud saud saud saud secur kingdom kingdom role role role role
2481	C13 CCAT	small martin carry businessm tuesday fly fly month year kill william start york scotland peopl red bought domest fit approv florid sum pend pioneer chicag provid san francisc servic depart depart depart tentat tentat tentat period period final americ base gave day plan plan plan plan transport transport announc airlin airlin airlin airlin bomb approvss comment comment pan pan pan pan pan pan pan aviat aviat spokesm bankrupt ink blu lockerbie mosley mosley miam miam miam chuck cob familiar logo shugru found found restart rout los glob angel rule brought make execut operat
2482	GCAT GCRIM GVIO	night compan compan early mexic mexic mexic life gener look tuesday tuesday saturday facil game year receiv build forward physic good join free free week week stat attorney help govern enjoy bill home guarant rest rest seiz million appar party dieg dieg monday monday monday time author return speak paid victim health told told san san freedom freedom work search fami fami new new toll south old kidnap kidnap kidnap bord tijuan tijuan base ransom captiv mamoru jose kon kon kon kon kon kon kon sany sany aug electr unoccup happy plan day travel refus japan japan japan japan found son harrow harrow harrow morn ordeal ordeal ordeal colleagu savor polic sweet worst releas tire fragil tremend emotion intellectual unmark execut sincer basebal presid confer confer lui anay bautist surviv baja californ hope suspect thank father father offic electron kenj kenj reunit subsid
2483	GCAT GCRIM	divert divert divert rubin rubin rubin rubin indict indict awar wrongdo wrongdo wrongdo study felon felon felon earg testimon testimon testimon testimon tru manipul gener merrill merrill merrill merrill merrill merrill salesm stamenson stamenson stamenson stamenson stamenson mr mr mr alleg alleg alleg alleg alleg alleg pool pool tuesday tuesday tuesday massiv money money raab raab raab raab raab idea clos clos send record misappropr misappropr high untru interest interest interest interest interest municip rate rate bankruptc month beneex beneex convict year guilt receiv matthew agent plead grand april york billion stand amount suit expert suggest invest invest invest invest invest cris decemb prison seek fund fund fund fund fund fund michael michael stat stat report report report attorney prob govern transf treasur treasur treasur treasur aid andraw show face face pull jury jury discuss contest assist damag public public public return financ financ commit sue told told exchang mater city city ronald take excess orang orang orang orang orang direct direct await deny deny deny school school earn earn earn portfolio portfolio run watch relat includ includ wall street septemb involut prev spokesm spokesm budget budget intern inform secur secur lynch lynch lynch lynch lynch lynch wrong bond respons prompt schem shock robert action make tremend sale sieg offic offic count count count count count count count count count count count count count count count count count count keep calif citron citron citron citron citron citron citron citron citron citron citron trial trial trial testif testif testif
2484	M132 M13 MCAT	stay market small small recent credit econom gener back mr tempor tuesday record interest interest rate rate rate low fract chri monet eisuk sakakibar sakakibar year year inch currenc currenc currenc currenc climb disappoint disappoint yen yen yen yen yen yen yen yen yen yen yen gap newspap shrank april petroleum york york york york shortfal billion trend decreas amount good firm turn greg pearm deal deal merchandis unit commercial de franc franc huge key today today quart quart bought slight slight germ stat report report percent percent local expect help nikkei decid canad fell rest advers strength end nation drop monday monday swiss stead feder bureau reserv rise rise rise rise buy daily foreign foreign financ financ financ pressur dub rose rose rose rose import exchang prim minist numb numb figur depart pound sharp sharp chief overshadow direct settl interview lot sell export aug basic session hike survey person effect chanc intern fed fed brit dollar dollar dollar dollar dollar dollar dollar dollar dollar dollar dollar dollar dollar june june deficit deficit deficit japan japan japan japan japan chang chang strateg late late late polic afternoon releas unchang fleet asia mark mark consult hold commerc left trad trad trad trad trad trad trad trad trad
2485	M132 M13 MCAT	stay market small small recent credit econom gener back mr tempor tuesday record interest interest rate rate rate low fract chri monet eisuk sakakibar sakakibar year year inch currenc currenc currenc currenc climb disappoint disappoint yen yen yen yen yen yen yen yen yen yen yen gap newspap shrank april petroleum york york york york shortfal billion trend decreas amount good firm turn greg pearm deal deal merchandis unit commercial de franc franc huge key today today quart quart bought slight slight germ stat report report percent percent local expect help nikkei decid canad fell rest advers strength end nation drop monday monday swiss stead feder bureau reserv rise rise rise rise buy daily foreign foreign financ financ financ pressur dub rose rose rose rose import exchang prim minist numb numb figur depart pound sharp sharp chief overshadow direct settl interview lot sell export aug basic session hike survey person effect chanc intern fed fed brit dollar dollar dollar dollar dollar dollar dollar dollar dollar dollar dollar dollar dollar june june deficit deficit deficit japan japan japan japan japan chang chang strateg late late late polic afternoon releas unchang fleet asia mark mark consult hold commerc left trad trad trad trad trad trad trad trad trad
2486	C181 C18 CCAT	negot compan compan compan acquir acquir capac market recent launch launch tuesday target target stock stock clos sharehold sharehold sharehold opinion interest entir month own countr year huntsm huntsm huntsm huntsm huntsm huntsm huntsm huntsm huntsm huntsm huntsm huntsm huntsm huntsm huntsm huntsm rex rex rex rex rex rex rex rex rex rex rex rex rex disappoint spurn spurn hostil dall pursu pursu privat commenc april unsolicit unsolicit salt lake schrod wertheim manag blast buyout texac invest invest firm larg debt produc opt decid decid tumbl pric busi anticip million million million million shar shar shar shar hour long drop drop drop industr win time time off off off off off off off financ made wash warn margin effort offer offer city success declin bid bid bid bid bid bid bid bid fami move move won sharp size fail fail chief doubl risen aggrav new base base cyclic simpl aug mat july plan corp corp corp corp announc includ includ chemic chemic chemic chemic chemic hand wall street tend tend expand comment reject reject reject reject board worth held strateg chairm takeov sweet advis add jon execut sterl mark assum boost offic trad trad subst
2487	C181 C18 CCAT	negot compan compan compan acquir acquir capac market recent launch launch tuesday target target stock stock clos sharehold sharehold sharehold opinion interest entir month own countr year huntsm huntsm huntsm huntsm huntsm huntsm huntsm huntsm huntsm huntsm huntsm huntsm huntsm huntsm huntsm huntsm rex rex rex rex rex rex rex rex rex rex rex rex rex disappoint spurn spurn hostil dall pursu pursu privat commenc april unsolicit unsolicit salt lake schrod wertheim manag blast buyout texac invest invest firm larg debt produc opt decid decid tumbl pric busi anticip million million million million shar shar shar shar hour long drop drop drop industr win time time off off off off off off off financ made wash warn margin effort offer offer city success declin bid bid bid bid bid bid bid bid fami move move won sharp size fail fail chief doubl risen aggrav new base base cyclic simpl aug mat july plan corp corp corp corp announc includ includ chemic chemic chemic chemic chemic hand wall street tend tend expand comment reject reject reject reject board worth held strateg chairm takeov sweet advis add jon execut sterl mark assum boost offic trad trad subst
2489	C42 CCAT GCAT GJOB	compan compan tuesday stock clos york billion resourc headquart unit layoff contain fairchild employ dick peopl wilson human quart cutback report expect expect administ million million shar support nation nation nation nation time area current cent exchang comput semiconduc semiconduc semiconduc semiconduc semiconduc cove cut cut cut cut work work work forc forc fisc spin job part part cost cost cost corp charg reduc chip attempt worldw june make unchang manufactur measur vice presid operat sale trad
2490	C151 C15 CCAT	compan compan nasdaq early market tuesday stock clos year year unit quart quart quart quart quart quart produc report report report percent introduc expect million million million million million million shar shar end drop financ cent cent cent compuserv compuserv compuserv loss loss loss loss cut cut cut cut work work forc forc continu fisc fisc fisc fisc onlin onlin onlin servic servic improv predict half job part part cost cost cost program americ old columbus ohio base sell spry earn july compar profit result announc revenu prev total major due softwar trad
2491	C151 C15 CCAT E41 ECAT GCAT GJOB	compan compan nasdaq early market tuesday stock clos year year unit quart quart quart quart quart quart produc report report report percent introduc expect million million million million million million shar shar end drop financ cent cent cent compuserv compuserv compuserv loss loss loss loss cut cut cut cut work work forc forc continu fisc fisc fisc fisc onlin onlin onlin servic servic improv predict half job part part cost cost cost program americ old columbus ohio base sell spry earn july compar profit result announc revenu prev total major due softwar trad
2492	C22 CCAT	wear wear compan compan compan compan compan compan compan levi levi levi levi levi levi levi levi strauss strauss strauss strauss study market market market market market market small lure launch launch retail retail back tuesday find slack slack slack slack slack color year year year fame potent privat form form billion billion hist doesn fall fall suit suit suit suit suit line line line line suggest free employ individual peopl slat slat slat slat khak stat awak percent sleep categ westfal westfal westfal anal requir workplac workplac dock dock introduc enjoy flannel gabardin fabric enorm brand brand brand brand debut pair pair lory world quest cogan cogan tailor hassl jan dentist big haggar pric pric farah busi busi belief code code telephon attir show accessibl million uniform youth nation case industr remain give occas social buy grow san francisc research research call work growth depart play half wool size appeal rang americ shop shop aim aim base jean jean jean cloth pant pant pant pant pant pant pant pant express survey person great dominat giant engin expand accept cotton cotton men men men men men men men men men men held hate major chang styl styl styl glob stor set broad don meant meant make allow add dress dress dress dress vice presid presid campaign alan millstein millstein consult hope boost sale offic trad reveal casual casual casual
2494	C13 C21 CCAT	compan label tip tip novemb market repair gener motor motor situat situat carry alleg tuesday hard target stop find high vehicl vehicl vehicl vehicl vehicl vehicl vehicl vehicl vehicl vehicl vehicl own sport sport sport safet safet inch inch review review data roll roll roll standard mid turn road understand light magazin magazin magazin magazin method produc produc stat report report report report report report report report report report meet anal introduc introduc govern govern troop troop troop troop troop brand fix reut reut administ blow defend belief model model model david telephon custom test test test test sold sold sold unsaf slap isuzu isuzu isuzu isuzu isuzu isuzu isuzu isuzu acur acur acur acur slx slx slx slx slx pull hond hond hond wheel wheel nation recal reliabl approxim inconceiv knoll daniel mccu mccu feder smith barney narrow gar gar gar suzuk suzuk damag samurai samurai buy buy articl pron cultiv rollov highway replac car traff investig investig wheelbas wheelbas charact made made abrupt told told manoeuvr focus import crash prov spent spent spent warn ongo eventual nhts call call call safe work offer man util util util sharp responsibl bob oversight direct interview base develop problem led tendenc divid consum consum consum consum consum consum consum consum consum consum mat dang hap mike ask driv great regulat regulat truck string accept spokesm spokesm spokesm demand auto subject stick don don know know manufactur campaign opportun sale influ tiny
2495	C11 C13 C17 CCAT	recov recov recov recov compan compan early market market back tuesday tuesday money money year year receiv york billion billion billion suit suit firm invest invest invest invest invest invest unit equit equit seek larg issu stat pay pay pay decid cash name name name name name name quest quest quest design defend law law law legal face liabl liabl liabl liabl liabl hour hour challeng long case case monday lawy time feder off financ commit commit made told told exchang loss call continu lloyd lloyd lloyd lloyd lloyd lloyd lloyd lloyd lloyd lloyd lloyd lloyd lloyd lloyd lloyd lloyd ceo ronald sandl sandl sandl sandl sandl sandl sandl sandl london underw court court court interrog insur ago multibill critic solvent solvent pound courtroom district judg judg posit payn payn payn payn payn payn complex chief restructur ten thousand claim claim quaint cost anxi await outcom apply settl americ injunct rescu propos propos reinsur pollut asbestos offset vote aug plaintiff detail contend breach disclosur plan plan plan plan plan plan plan plan plan day crucial hap break extingu relat char includ includ ask ask benefact benefact answ answ dispos leftov asset prem unabl proceed resum lunch criticis inform secur secur refus worldw determin subject dollar dollar compl total friday sec sec neutr respons request rule separat morn robert dismit action need need brought know afternoon releas extent pleas pleas add enter recogn pete execut execut lane opportun boost offic left block block
2497	E211 E21 ECAT GCAT GPOL	congress tuesday send dec own countr safet april unit suspend suspend suspend red michael report stat stat govern govern treasur recreat recreat mean collect law minim feder rais short fuel fuel fuel fuel cent complain purchas assoc pleasur boat boat boat boat boat waterway dye depart sciull altern levy direct program hazard problem aug day wide wag affair includ caus diesel diesel diesel effect dying gallon legisl clinton marin presid commerc sign tax tax tax tax
2498	E12 ECAT M131 M13 MCAT	read market market market market market reach econom econom econom econom econom econom econom econom econom econom econom econom econom econom econom econom econom econom econom econom econom back back tuesday come come fast interest interest rate rate rate rate rate rate rate rate rate rate month month low low low low agree agree year year year year year drag indicat indicat term sung bank bank bank bank bank brother road firm fall confirm decemb paint outlook outlook week week week quart well lead gross domest produc scenario leav leav report report report percent percent percent strong strong strong anal anal anal anal anal anal anal anal expect main show show reason current long long long drop pret remain remain stead stead feder feder feder feder feder august august august reserv reserv refrain rais rais rais rais rais short robust robust pressur pressur care care san import francisc notic head dip assoc senior continu declin inflat inflat inflat inflat inflat growth growth growth growth growth fail move move move move move ll ll claim claim posit put risk americ consum earn wag day labor justif justif histor watch resist corp corp heat real fed fed fed fed fed fed fed fed fed fed fed fed fed fed fed fed fed fed fed held june sept sept whit chang bt possibl jone aver aver glob chairm chairm polic polic polic creat creat unchang make add add vice presid ord pace hold hold hold amid solid sign sign sign slow keep keep stay touch elect elect elect recent recent recent hous race blast monet monet target pictur stand stand stand stand data data data data data data troubl suggest suggest build start trend wait good fund loan employ employ slight overnight mix meet meet meet slowdown slowdown slowdown mean mean belief fomc fomc fomc janu pend governor hour sum open open safe unemploy polit polit rise pond pond recip cite juggl upcom upcom vicissitud sohn warn financ norw commit commit made farm blur pat clarif cent cent lyl gramley gramley gramley scen nirvan cut guess tap forc brian shat initial idly story critic josh feinm persist persist churn won servic scratch spend wond schlossberg schlossberg farg predict payrol payrol sud brill dry curv await chief job job job job job job job job salomon offset string threat thing hap hap july july july chanc powd charg secur manufactur absent absent memb memb mortg action action action due gary late late forecast offic offic left tight preston martin martin martin homev novemb odd sect funda clear clip
2499	C151 C15 CCAT	compan compan compan compan limit limit limit limit limit limit acquir fat early early tough tough clear clear clear rival retail retail retail retail retail tuesday massiv target target target target target record high perform perform chain chain chain chain chain chain chain year year year year year year year year year year year year dayton dayton dayton dayton dayton dayton dayton dayton dayton dayton rebound hudson hudson hudson hudson hudson hudson hudson hudson hudson hudson term disappoint climb york billion billion roll line good turn modest discount discount troubl merchandis unit unit unit larg larg larg quart quart quart quart quart quart report percent percent percent percent percent percent percent percent percent anal anal anal anal anal special special expect expect brand brand jump jump fix suff fell fell fell easy big big main pric busi busi gain aid woe custom sold turnaround million million million million million million million million million million million shar shar shar shar shar shar shar open challeng end nation sum outpac increas smith avoid barney public attract fuel robust pressur pressur weak made side rose rose rose rose cent cent cent cent cent cent cent loss cut cut cut declin compet growth growth vow bid lack depart depart depart ago ago brown signif improv improv improv improv improv improv women half transl chief chief restructur bob cost cost save columbus ohio base base base sell divid divid divid divid divid divid except earn earn earn earn earn earn earn thing thing compar compar compar express profit profit profit profit profit profit profit profit profit profit profit profit result result result result corp corp corp includ includ quadrupl post post post anntaylor anntaylor anntaylor field ulrich ulrich mervyn mervyn mervyn mervyn mervyn mervyn mervyn mervyn mervyn mervyn minneapol ups bottomlin engin revenu saul yaar yaar reject pipe jaffray exceed depress wal mart penney penney sear marshal order expend expend lingerie total toiletr promis kmart intimat intimat apparel lern anit strateg son gallitan alex chairm stor stor stor stor stor stor stor stor stor stor stor stor stor consecut thorn few season don spring church rely mount execut execut richard fourth top top region mark reflect wood boost sale sale sale sale sale sale sale sale sale sale sale sale sale sale slug interpret option
2500	E12 ECAT M11 MCAT	early market market bound remov roadblock tuesday stock stock clos high high interest rate rate data york point unoffic issu decid advanc rally volum million shar end industr feder reserv exchang continu declin base led blu blu chip chip fed dow jone aver broad moderat unchang unchang hold
2501	M11 MCAT	early market market bound remov roadblock tuesday stock stock clos high high interest rate rate data york point unoffic issu decid advanc rally volum million shar end industr feder reserv exchang continu declin base led blu blu chip chip fed dow jone aver broad moderat unchang unchang hold
2502	C42 CCAT GCAT GJOB	negot fully motor ford union union reach vehicl begin ahead affect manag firm headquart decemb unit maintain employ employ peopl larg week week local expect world abandon interim telephon custom anticip appar rent rent rent contract nation nation convent convent convent convent convent monday area chicag chicag attract car car car pressur airport side pack work work servic servic strik strik strik strik put guess hundr aug want corp stumbl giant comment town spokesm memb rule need teamst teamst hertz hertz hertz hertz hertz hertz hertz hertz hertz descend courtes buse joe surpr russ russ russ hare yesterday midway downtown park ridg thought opportun locat demo demo offic left count staff staff bit prepar
2504	C22 CCAT	netwar netwar netwar surf compan compan compan compan compan nasdaq flung compatibl preserv market publ tuesday stock high perform full page build privat fall fall standard line invest produc produc produc produc unveil unveil lead internet internet internet design pric busi exist futur futur custom million million million support open drop convent give off grow cent comput network network network network network network network network network network continu compet servic serv size estimat base sell web web web brows corpor corpor netscap commun microsoft plan corp corp prev intern late late chairm robert softwar softwar softwar softwar softwar softwar softwar softwar softwar need access access intend afternoon releas featur concent advant novel novel novel novel novel novel novel novel novel novel intranet intranet intranet intranet intranetwar intranetwar intranetwar intranetwar intranetwar funct trad frankenberg use orem utah establ
2505	C42 CCAT E41 ECAT GCAT GJOB GPOL	congress daught small small carry tuesday high restaur year year billion ticket percent pay pay vict bill bill bill bill bill bill bill busi law law million hour minim minim minim minim democrat increas time time rais rais greet paid cent cent cent call work work work forc fami invit crowd part cost americ earn differ abil failur surround reward wag wag wag wag wag break unskill child pill labor great hand hand reimpos typic airlin pass ran fellow outdoor legisl object elabor ceremon clinton clinton clinton clinton clinton oct fanfar sept girl music marin band stor sweet make pink republ dress measur arm presid presid boost sign sign sign sign sign tax tax
2506	C22 CCAT	wear wear compan compan compan compan compan compan compan levi levi levi levi levi levi levi levi strauss strauss strauss strauss study market market market market market market small lure launch launch retail retail back tuesday find slack slack slack slack slack color year year year fame potent privat form form billion billion hist doesn fall fall suit suit suit suit suit line line line line suggest free employ individual peopl slat slat slat slat khak stat awak percent sleep categ westfal westfal westfal anal requir workplac workplac dock dock introduc enjoy flannel gabardin fabric enorm brand brand brand brand debut pair pair lory world quest cogan cogan tailor hassl jan dentist big haggar pric pric farah busi busi belief code code telephon attir show accessibl million uniform youth nation case industr remain give occas social buy grow san francisc research research call work growth depart play half wool size appeal rang americ shop shop aim aim base jean jean jean cloth pant pant pant pant pant pant pant pant express survey person great dominat giant engin expand accept cotton cotton men men men men men men men men men men held hate major chang styl styl styl glob stor set broad don meant meant make allow add dress dress dress dress vice presid presid campaign alan millstein millstein consult hope boost sale offic trad reveal casual casual casual
2507	C22 CCAT	wear wear compan compan compan compan compan compan compan levi levi levi levi levi levi levi levi strauss strauss strauss strauss study market market market market market market small lure launch launch retail retail back tuesday find slack slack slack slack slack color year year year fame potent privat form form billion billion hist doesn fall fall suit suit suit suit suit line line line line suggest free employ individual peopl slat slat slat slat khak stat awak percent sleep categ westfal westfal westfal anal requir workplac workplac dock dock introduc enjoy flannel gabardin fabric enorm brand brand brand brand debut pair pair lory world quest cogan cogan tailor hassl jan dentist big haggar pric pric farah busi busi belief code code telephon attir show accessibl million uniform youth nation case industr remain give occas social buy grow san francisc research research call work growth depart play half wool size appeal rang americ shop shop aim aim base jean jean jean cloth pant pant pant pant pant pant pant pant express survey person great dominat giant engin expand accept cotton cotton men men men men men men men men men men held hate major chang styl styl styl glob stor set broad don meant meant make allow add dress dress dress dress vice presid presid campaign alan millstein millstein consult hope boost sale offic trad reveal casual casual casual
2508	C42 CCAT E41 ECAT GCAT GJOB	negot compan fully jersey newsdesk motor ford union union reach vehicl begin ahead affect manag firm headquart decemb unit maintain employ employ peopl larg week week local expect world abandon interim telephon custom anticip appar rent rent rent contract nation nation convent convent convent convent convent monday area chicag chicag chicag august attract car car car pressur airport side pack work work servic servic strik strik strik strik put guess hundr want corp stumbl giant comment town spokesm memb rule need teamst teamst hertz hertz hertz hertz hertz hertz hertz hertz hertz descend courtes buse joe surpr russ russ russ hare yesterday midway downtown thought opportun locat demo demo offic left count staff staff bit prepar
2509	C13 C21 CCAT	compan kiwi kiwi kiwi flight flight back pilot train carry carry tuesday record record fly agent start line light percent mean administ feder feder aircraft green cut cut servic problem problem plan examin regulat airlin involut aviat intern intern air june june due late action allow add operat reveal keep
2510	C21 CCAT	nasdaq recent emerg emerg attend attend attend attend flight flight flight flight flight flight flight flight flight flight flight flight flight situat situat pilot pilot pilot pilot alleg carry carry carry tuesday tuesday tuesday faa faa faa faa faa faa stock sery sery valujet valujet valujet valujet valujet valujet valujet valujet valujet inspect inspect mcdonnel dougl violat dc dc dc exercis kenyon kenyon kenyon kenyon low consist variet everglad begin begin begin begin nightmar safet safet safet consent consent kill retrain term notif receiv schedul schedul agent start regist line invest turn turn greg discount delt wait peopl suspend suspend suspend week red light light ticket represent meet meet approv approv atlant sit florid big administ contribut custom personnel test scenario recal discuss feder feder identif charact aircraft crash crash crash green green prov prov prov prov prov procedur work city city city continu declin washington numb servic servic depart fact take event step put put cost program final dream sell develop led led run run run run run abil transport plan day day day includ includ ask wednesday dead wall regulat street airlin airlin airlin involut plac board aviat spokesm resum resum resum air crew crew mainten june friday morn afternoon afternoon unchang operat operat operat hope hope advert ord ord amid trad staff prepar prepar
2511	C13 C21 CCAT	nasdaq recent emerg emerg attend attend attend attend flight flight flight flight flight flight flight flight flight flight flight flight flight situat situat pilot pilot pilot pilot alleg carry carry carry tuesday tuesday tuesday faa faa faa faa faa faa stock sery sery valujet valujet valujet valujet valujet valujet valujet valujet valujet inspect inspect mcdonnel dougl violat dc dc dc exercis kenyon kenyon kenyon kenyon low consist variet everglad begin begin begin begin nightmar safet safet safet consent consent kill retrain term notif receiv schedul schedul agent start regist line invest turn turn greg discount delt wait peopl suspend suspend suspend week red light light ticket represent meet meet approv approv atlant sit florid big administ contribut custom personnel test scenario recal discuss feder feder identif charact aircraft crash crash crash green green prov prov prov prov prov procedur work city city city continu declin washington numb servic servic depart fact take event step put put cost program final dream sell develop led led run run run run run abil transport plan day day day includ includ ask wednesday dead wall regulat street airlin airlin airlin involut plac board aviat spokesm resum resum resum air crew crew mainten june friday morn afternoon afternoon unchang operat operat operat hope hope advert ord ord amid trad staff prepar prepar
2512	E12 E131 E13 ECAT	fire congress novemb market market market market elect elect elect recent evident hous retail econom econom econom econom econom econom econom econom econom econom econom stall tuesday tuesday money money joseph interest interest rate rate rate rate rate rate rate rate rate month fast monet year year year ahead term term bank bank bank bank point forward line good annual week week week quart quart quart key fund gmt stat coyn meet meet meet percent percent percent anal expect expect decid decid opt cool bill overnight felt check sit quest mix mean cheney cheney precaut boston reut hancock hancock janu pref wan act wax belief fomc fomc fomc open open open end end long sandwich party nominat convent dieg democrat remain remain win increas stead stead stead stead consid feder feder feder feder feder feder momentum momentum reserv reserv reserv reckon chicag polit sustain fan rise rise extr pocket portend financ grow grow weak commit commit runup cent cent cent lose san cut work continu continu inflat inflat inflat servic spend move half half speed chief buoy new put job basi base consum justif wide announc charg survey driv impact hand hand septemb expand heat spokesm john fed fed fed fed held clinton polic polic polic make make unchang republ add measur forecast surpr presid presid presid pace pace solid hold hold hold hold offic sale amid commerc left sign sign slow slow slow independ
2513	C22 C31 CCAT	compan compan nasdaq compatibl televis televis televis televis emerg retail retail tuesday stock clos record chain room gateway gateway gateway gateway gateway gateway gateway pc pc screen start sony york north compaq wiz compus system system system system system system sioux iowa live pent video video video mid wire wire keyboard remot unit mous mous videocasset stereo stereo lase week disc anten devic audio produc sound stat east categ anal introduc home home big pric busi busi test sold sold control control merch imag machin off off feed dub rose cent comput comput comput comput comput comput comput comput city cabl compon destin destin destin play mail mail coast gear base base sell consum surround corp corp corp watch announc person field septemb accept pipe intern combin stor stor stor process afternoon featur superior tv tv thought ord ord electron sign funct trad trad trad beat
2515	C21 CCAT	uruguay compan compan bring recent rival econom gener motor motor ford tuesday stock stock vehicl dakot dakot dakot compact countr cherok cherok cherok year construc cordob provinc build grand start start start start york april site select select roll line mid invest invest invest ultimat unit free larg produc produc produc stat stat tueday benefic decid detroit big pric futur million million million million overse end nation redesign increas buy car financ commit made rose cent exchang call growth argentin argentin argentin argentin argentin argentin brazil brazil brazil brazil brazil brazil brazil brazil south south south americ americ americ base sell chrysl chrysl chrysl chrysl chrysl chrysl chrysl chrysl chrysl chrysl chrysl plan plan plan corp corp corp announc assembl assembl assembl plant plant plant plant plant plant plant pickup truck diesel engin engin expand expand expand jeep jeep jeep built built present favor total suppl automak cond chairm robert set eaton eaton afternoon make make add manufactur prospect region boost sale sale mercosur mercosur mercosur trad trad subst zone lag establ paraguay
2516	C11 C24 CCAT	uruguay compan compan bring recent rival econom gener motor motor ford tuesday stock stock vehicl dakot dakot dakot compact countr cherok cherok cherok year construc cordob provinc build grand start start start start york april site select select roll line mid invest invest invest ultimat unit free larg produc produc produc stat stat tueday benefic decid detroit big pric futur million million million million overse end nation redesign increas buy car financ commit made rose cent exchang call growth argentin argentin argentin argentin argentin argentin brazil brazil brazil brazil brazil brazil brazil brazil south south south americ americ americ base sell chrysl chrysl chrysl chrysl chrysl chrysl chrysl chrysl chrysl chrysl chrysl plan plan plan corp corp corp announc assembl assembl assembl plant plant plant plant plant plant plant pickup truck diesel engin engin expand expand expand jeep jeep jeep built built present favor total suppl automak cond chairm robert set eaton eaton afternoon make make add manufactur prospect region boost sale sale mercosur mercosur mercosur trad trad subst zone lag establ paraguay
2518	GCAT GCRIM	expos recov label compan compan fully awar early gener gener tuesday tuesday tuesday clos month own countr begin begin year year year year mor mor mor spokeswom york suit suit suit suit tobacc tobacc tobacc tobacc tobacc tobacc tobacc tobacc tobacc file file file unit join seek hundred smok smok smok smok smok smok smok fund produc produc produc stat stat stat stat britain attorney attorney carl stoval expect decid decid philip philip philip florid kans kans cos thursday indianapol indianapol liabl challeng jury jury jury jury delib case case case case roge roge roge roge roge roge monday lawy lawy lawy give age age industr industr industr industr industr industr industr die die lung lung lung canc canc canc canc widow unspecif damag public public public advocat advocat urg mayor mayor rudolph giulian sue sue health health care pack green warn san wound francisc head effort obtain city city city medicaid medicaid cigaret cigaret cigaret jacksonvill award man man strick court court lucky strik move fami fami fami defect brown brown brown near williamson williamson williamson plc neglig fail marion new cost cost risk risk americ rjr sell nabisc reynold reynold simil detail contend brook ligget ligget corp corp corp child wednesday inform set know make teen parent indian superior confer richard recoup let heel mark hung peddl addict addict addict hold hold origin quit quit count count subsid subsid death diagnos trial group group group choic
2520	E512 E51 ECAT	recov cumulat mexic mexic shield market bound emerg pour econom econom econom econom econom econom econom back bolst tuesday hard plung record high month month month progress game low low low beneex begin countr countr countr countr year damp term climb cheap cheap gap gap gap start bank shrank shrank petroleum petroleum petroleum york shortfal shortfal extrem billion billion billion billion billion billion billion billion billion billion billion billion billion billion billion billion billion billion billion billion billion billion billion billion billion fall decreas german manag good good good good good merchandis merchandis merchandis unit impress quart sourc sourc produc produc straight stat lost percent percent percent percent percent percent percent percent percent percent percent percent atlant anal anal irrit help surpass swell mickey kant kant falloff tell canad canad chas manhat fell fell fell fell fell lawrent level chimerin chimerin chimerin ardor big vigor vigor rest waver administ lower wan volum volum million million million million million million million million europ europ shrink shrink drop drop oil roge secret industr industr chin chin chin time rise bilater bilater influx tourist car car foreign foreign foreign grow grow olymp typ weak weak weak weak runup bounc made made civil provid told aircraft import import import import import import import import import import import import mater mater comput comput semiconduc warn underpin western head gradual deep call opec declin declin declin washington tour servic servic servic servic depart half sharp sharp sharp sharp recess new part part part part cost cost direct risk americ americ lot export export export export export export export offset consum consum consum revis run institut travel break resolut asian impact typic giant reduc expand chron barrel auto demand held june june june june june june june june june june june june june june suppl suppl japan japan japan deficit deficit deficit deficit deficit deficit deficit deficit deficit deficit clinton dramat strateg process steam barry few don execut surpr activ confer fourth creat mark solid boost amid sale sale sign commerc commerc slow slow trad trad trad trad trad trad trad trad trad trad surplus surplus surplus
2521	GCAT GPOL GVOTE	carry retir retir retir econom rebound tuesday beneex rate team form year war war war war war war war war war war war war hero hero colin colin powel powel powel powel powel powel powel dole dole dole dole dole dole dole dole dole dole dole dole dole dole dole dole dole dole gulf gulf restor lent naysay difficult prestig surrend represent ticket ticket nut oppon newt jack gingrich kemp kemp kemp nelson veter veter veter warfield kentuck plent natur issu aboard help help help week week week week vacat lead lead conv troop quip vict vict didn desert renomin storm report report world world introduc percent balanc strong strong less accus administ administ administ modern bill bill defend defend aid speech show spotlight rally give secret secret haven discuss cabinet cabinet prior author age imag die toler social reel oust remind remind wish chicag charact greet feder louisvill airport vfw prais champ proud purpl wound vision foreign visit joke joke hear hear poll harmon energ infus centrepiec pledg incom elder scant americ americ day run watch watch watch plan plan plan plan includ spokesm clinton clinton clinton clinton clinton clinton clinton clinton project whit few young set arm moderat republ republ republ republ republ polic don make surpr hope presid presid operat televis opportun boost independ trad nov nov brief elect elect hous hous portion gener gener gener rumor opinion receiv north potent mention good germ stat stat stat ensur appear talk talk party convent convent convent convent convent convent open democrat nation time speak press past told commit made made cut cut cut forc forc won spend valu bob bob bob part sell detail thing trail ask ask relat post great budget demand silent respons inadequ rely mission singl soldy prospect fault terror fight fight iran cuba heart korea advant incumb demo demo campaign campaign campaign campaign novemb kid tax wear prepar popul
2522	C172 C17 CCAT M131 M13 MCAT	compan compan compan market sect credit credit merrill merrill back tuesday high rate rate rate rate rate game ahead ahead term term lehm brother point select manag manag standard standard poor poor mid upgrad invest invest firm firm firm spread issu issu issu issu debt debt debt grad yield yield percent percent minus minus lead lead sprint assign pric pric pric moody fomc million million open matur feder punctu avoid quietud lacklust rais tone junk short hayn hayn ccc outstand oner coupon b3 spectr commit lp quot servic fact tranch repay basi corpor corpor corpor session announc announc refin proceed intern total lynch lynch bond bond bond due set unchang reflect trad trad trad trad
2525	C181 C18 CCAT	acquir acquir market tuesday annual cash million grow standex standex vidal vidal vidal vidal city onion onion onion onion peachtr undisclos maount georg georg mail corp asset intern stor stor ord sale
2526	C181 C18 CCAT	compan compan compan compan compan nasdaq acquir acquir lipton rival hous hous hous adopt pool tuesday stock stock stock stock stock sharehold sharehold sharehold interest entit merg merg merg year schedul dall dall york agree agree agree agree billion mid deal deal deal deal deal annual annual free employ employ larg issu meet meet approv approv special lead defin busi million million million million shar shar shar shar end enterpr enterpr remain industr industr edg off outstand outstand cent champ champ champ champ champ champ champ champ exchang head call ceo redm redm redm redm redm redm redm redm redm redm fleetwood auburn mich postpon rescind chief direct program base base base valu vote hill plant plant wednesday regulat walt board subject major combin combin chairm repurchas robert morn recommend young make unchang manufactur manufactur manufactur manufactur manufactur execut presid presid creat sale subsid tax
2527	C24 C33 CCAT M11 MCAT	fully pilot tuesday stock month month agree agree equit automat produc stat percent display special special expect design reut phas futur chicag current extend extend replac exchang exchang amex amex amex amex amex om stockholm aodb aodb aodb floorw transfer mail pape americ book book book book book relat derivat derivat desk electron electron electron sign option option option option option option
2528	C181 C18 CCAT	compan compan acquir acquir market gener motor motor ford volkswagen volkswagen ag tuesday facil begin term system system unit unit unit larg brasil brasil produc produc percent expect convert control control time time buy platform provid growth tennec tennec tennec tennec tennec tennec tennec exhaust exhaust exhaust exhaust exhaust exhaust exhaust exhaust minuzz minuzz monroe monroe argentin argentin argentin argentin argentin argentin ride ride daiml neighbor part benz brazil brazil brazil brazil escort bueno south mogi americ mirim catal ab9 cs5 divid plan corp plant revenu air elabor suppl automot automot achief combin make add enter manufactur manufactur manufactur manufactur manufactur operat operat operat walk walk walk establ
2529	C12 CCAT	compan compan compan market fals tuesday game suit suit unit lawsuit light issu stat stat david class challeng sum win feder court district judg judg judg judg judg judg judg grant grant adequ prospectus prospectus ezra wrot mislead disclosur radic radic radic inform secur secur favor dismit action alan ord
2531	E512 E51 ECAT	cumulat soybean veget fat tuesday month month month year year billion billion billion billion billion billion billion billion billion report fell fell fell million million million million million million million million oil commod rose corn import import wheat farm farm farm agricultur depart depart period export export export export peg revis compar compar prev june june june june june commerc commerc trad trad trad trad surplus surplus surplus
2532	C13 CCAT M11 MCAT	nasdaq approach market tuesday stock stock fract year ahead invest yield percent meet treasur index index fomc open open open industr stead feder reserv conclud commit rose wall street caut bond chang dow unchang
2533	E512 E51 ECAT	econom tuesday plung month low gap gap petroleum shortfal billion billion billion billion billion merchandis slight percent percent percent level drop drop drop narrow narrow import import import depart sharp export revis wall street june june june june deficit dramat forecast commerc trad trad eas
2534	E512 E51 ECAT	econom tuesday plung month low gap gap petroleum shortfal billion billion billion billion billion merchandis slight percent percent percent level drop drop drop narrow narrow import import import depart sharp export revis wall street june june june june deficit dramat forecast commerc trad trad eas
2535	C13 CCAT M11 MCAT	limit market market market quiet situat tuesday stock stock interest rate way ahead ahead agree today today meet meet special anal anal expect opt volum fomc choos open increas stead univers feder reserv commit continu pattern summertim shap larry wachtel prudent wall street chanc snap secur fed yesterday hold
2536	E12 ECAT	early market market tight preston martin martin martin recent recent recent credit hous homev odd econom econom econom econom econom econom econom econom heav unanim abound clip tuesday sery sery repret joel interest interest interest interest interest prakk rate rate rate rate rate rate rate rate rate rate rate rate macroeconom fast llc practic monet inconclud revers begin undertak year year rebound term data start start bank bank bank point stand view suggest good expert expert discount firm week week quart quart fund fund loan gmt gmt report report percent percent meet meet meet meet strong requir expect decid st cool cash overnight loui appear quest mix reut janu slowdown slowdown act soft belief show fomc futur shar speech open governor control benchmark discuss increas stead stead time feder feder feder reserv short rise rise rise grow grow past financ commit made san francisc fade prevent assoc inflat inflat quick servic edt edt move ago weight take poll wide announc charg charg prev plac memb fed fed fed fed fed fed fed fed fed fed chang chang chang rule rule due chairm chairm chairm polic polic polic advis make make add forecast forecast vice prospect presid hold amid commerc sign sign sign slow eas
2537	C13 CCAT GCAT GCRIM	label early recent gener target clos immed them spectacul month march year build page page spokeswom spokeswom site site site site site site site site site site site site pictur expert invest common file commercial annual week complet magazin magazin magazin magazin fund comprom report mention special anal govern internet internet internet internet protect world window window ang gain gain gain exist custom million exploit speech pull nation press august public identif pow pow wid replac financ past confid comput comput comput prevent entry continu senior lay growth man quick depart depart depart depart depart thousand organ kind web web web web web web web web web justic justic justic justic justic simpl simpl corpor corpor corpor milit breach breach shouldn institut institut hap dept mike break break hack hack hack hack hack hack hack hack hack includ includ flaw flaw flaw flaw islam vulner person unidentif degree sens diatrib injustic swastik bad adolf prev hitl plac plug vand vand account spokesm vast vuln inform inform inform http www secur secur secur secur secur secur secur secur secur secur fed attempt usdoj gov highlight copy hate graffit fill bert found brandenburg major major dozen insecur edit elgan elgan hole hole battl unauthor connect motivat softwar multipl multipl don password access access fidel fidel fidel make releas mutual add dissemin rely allow loophol measur measur manufactur singl richard richard hope advert offic offic offic offic reveal docu
2538	C22 C31 CCAT	intens dimin jupit early market market market market recent launch launch launch launch rival clip tuesday stock clos high fast low variet begin year wallac term journ octob agree york point site doesn system system system system select view edition video war war firm free free free profil week week michael produc produc produc audio report stat stat percent difficult local unveil anal anal expect requir lead lead internet internet internet internet internet internet internet internet internet world fell level tailor big window window window window phas ubs million scenario shar shar shar deliv minim domin drop monday industr time junk off off off off platform wid grow confid wash made provid provid cent box comput comput comput comput qual call research integr fare subscrib servic navigat navigat navigat explor explor explor explor explor play play invit period new mail mail mail direct estimat base base web web brows brows brows brows brows brows brows brows brows link simil netscap netscap netscap netscap netscap netscap netscap netscap netscap netscap commun commun microsoft microsoft microsoft microsoft microsoft microsoft microsoft microsoft microsoft microsoft microsoft microsoft microsoft microsoft day compar threat corp corp rapid charg includ field wall enhanc street expand prev heat multimed inform inform secur highlight adam real forthcom aver late late late version version version version version battl battl softwar softwar softwar access featur featur pose allow sportslin usa download download espn operat operat operat sportszon command interact content content schoenfeld schoenfeld mountain mark licens dimens animat fee redmons glorif electron electron offic offic blunt count count indistinguish nt calif use use use use use use use use appl trial trial macintosh
2539	E11 E12 ECAT	early market market tight preston martin martin martin recent recent recent credit hous homev odd econom econom econom econom econom econom econom econom heav unanim abound clip tuesday sery sery repret joel interest interest interest interest interest prakk rate rate rate rate rate rate rate rate rate rate rate rate macroeconom fast llc practic monet inconclud revers begin undertak year year rebound term data start start bank bank bank point stand view suggest good expert expert discount firm week week quart quart fund fund loan gmt gmt report report percent percent meet meet meet meet strong requir expect decid st cool cash overnight loui appear quest mix reut janu slowdown slowdown act soft belief show fomc futur shar speech open governor control benchmark discuss increas stead stead time feder feder feder reserv short rise rise rise grow grow past financ commit made san francisc fade prevent assoc inflat inflat quick servic edt edt move ago weight take poll wide announc charg charg prev plac memb fed fed fed fed fed fed fed fed fed fed chang chang chang rule rule due chairm chairm chairm polic polic polic advis make make add forecast forecast vice prospect presid hold amid commerc sign sign sign slow eas
2540	C12 CCAT GCAT GCRIM	tuft tuft tuft iii ii crutch hebbl keen keen claus evident evident affil gener syndic entit undertak north york york manag suit albert lind unit lawsuit lawsuit seek stat stat preced decid name name name law david face support liabl party monday feder commit focus prov continu lloyd lloyd lloyd lloyd lloyd lloyd lloyd lloyd london court court court court district district jame fail judg claim direct grant americ plaintiff plaintiff includ particip john motion rule late set dismit dismit brought brought know extent pleas pleas enter recogn pete lane southern choic
2541	C31 C33 CCAT	dimin compan market recent nicotin nicotin rival smithklin smithklin smithklin smithklin nyt tuesday beecham money nicoderm marri drug prescrib skin skin skin nicontrol nicoret chew march gum commend ins year nutr endors newspap york york tie tie deal cessat smok smok sourc produc produc produc produc report approv categ pay britain profess introduc societ societ societ societ societ million long johnson johnson discuss time canc canc canc canc pressur told provid health health care care care assoc assoc move plc put permit americ americ seal patch patch patch exclud corpor profit spokesm spokesm stol late version make newsroom mount partn quit count trad
2542	C12 CCAT GCAT GCRIM	compan payment payment small launch submit submit fals tuesday money cap cap cap cap interest reach game own year promot promot promot promot team provinc disappoint agent agent newspap regist writ firm firm unit unit seek peopl peopl peopl issu report pay local local vict cash main reut janu polish polish coca coca coca coca coca coca poland poland poland futur custom federat behalf priz priz priz priz priz support pap sp print print print print insid venu warsaw zloty zloty zloty zloty marcin sum sum gold barcz barcz barcz aros win win badly arous arous contest contest supple proport notar machin identif wid payout anthon bark olymp past told offer numb servic court court court match match match won won take new new part part claim rang date bottl lot consum consum consum consum simil hap whol chanc accept spokesm demand june total total cola cola cola cola cola cola add add add fault compens top top hope advert precis split group group sought
2543	C31 CCAT	early early market market market gener motor ag tuesday month month year year year year agent agent bank shrank unit unit unit unit unit franc loan domest germ report percent percent percent percent jump polish polish poland poland sold sold shar pap pap warsaw increas rise attract car car car quot growth predict new period period direct south sell led compar compar wag corp includ exceed samar samar auto monit fiat daewoo daewoo fso real adam opel renault wojciech drzewieck spur newsroom top korea sale sale sale
2544	C14 C151 C15 CCAT	early market market recent correct look tuesday tuesday stock clos find record record record record high month month month month month low year year year year year year rebound disappoint octob brother start point point hist good good turn invest invest invest firm firm firm firm firm maintain equit list individual indicat wint week quart capit slight percent percent percent percent strong strong downward anal anal anal anal anal anal anal expect expect paint jump main main gain polish polish polish show show maxim long warsaw warsaw stabl rise rise buy return daily foreign weak weak weak exchang loss loss london growth growth net improv play half half take prelimin wors pawel tarnowsk tarnowsk raiffeis raiffeis earn earn earn earn earn earn earn earn attribut session unspectacul hast july july july july july july july spurt compar downtrend profit profit profit result result result result result result jacek dzierw dzierw salomon definit audit overlook tangibl tend ppabank prev wig swarzedz polifarb polifarb wroclaw cieszyn cieszyn particul bours june june real due due aver season parallel make newsroom bull norm top hope surg sale sale sign
2545	C152 C15 CCAT	mexic draw mgr aamuleht aamuleht whitbread tasty artis barron yockey yockey favorit sone investimento sgp edition manag portug empret invest invest invest ica sociedad controlador finland yhtym oy week schibst norway fund fund guangzhou report attent overse overse candid monday chin identif financ servic plc plc pape interview base base corpor sa includ hand concern intern intern mutual partn mark group pick pick
2546	C31 CCAT	compan retail tuesday unit produc shell shell shell shell shell nederland bv litr litr litr litr euro amsterdam lead pric pric pric pric pric pric thursday netherland dutch dutch guild guild guild guild guild rais rais rise august cent cent servic move royal diesel diesel diesel unlead unlead prem prem effect gasolin gasolin gasolin intern station dollar recommend regul newsroom reflect
2547	C31 CCAT	early early tuesday fin fin restaur restaur restaur restaur restaur restaur rate rate month month month room year year year year year year year year year year year year year year hotel hotel hotel hotel hotel hotel hotel hotel yr yr point point trend occup occup stat percent percent percent percent percent percent percent percent percent percent percent percent percent percent expect accommod accommod helsink fell fell janu janu janu volum volum sold increas increas increas weak rose rose rose rose numb satisfact half period develop h1 council council council compar june june june june june june june june june june chang chang brought newsroom branch sale sale sale sale sale sale sale sale pct
2548	C151 C15 C31 C313 CCAT	compan market market market tuesday fin target target reach fast sep year year year year year manag good food food food employ oy bought produc stat percent percent percent raisio raisio raisio raisio raisio raisio fim fim raision tehtaat markk margarin margarin margarin heinio polsk modern olsen polish polish polish polish polish poland poland million million shar shar end grow grow work net fact direct turnov chemic object achief spac cond sale sale subsid subsid group mln
2550	C152 C15 CCAT	fully early tight market recent flight flight carry french tuesday record record record high high fly low begin own undercut year year year year year year year year year year currenc currenc cheap full full full full start billion billion billion billion billion billion billion trend system good franc quart ticket norway slight slight slight stat report report approv percent percent britain strong expect enjoy govern home fix world world fell fell jan pric rest sas sas sas sas sas sas sas scandinav scandinav denmark sold stenberg stenberg million million entrepreneur copenhagen european brussel strength braath challeng oslo control industr remain remain increas time virtual swed swed swed swed swed swed swed crown crown crown crown crown crown norweg daily daily foreign foreign weak weak weak weak monopo told rose safe continu autumn move won stockholm sky sky pre pre pre half half half half posit chief partial period period part base incom incom run run compar compar express profit profit profit profit profit profit profit result result announc virgin dominat septemb airlin airlin airlin airlin asset revenu revenu effect effect passeng worth dollar expend rout branson negat unchang see forecast execut richard operat operat compens offic sale trad beat tax tax tax group
2551	C16 C181 C18 CCAT	negot stak compan compan compan compan compan early market launch credit rival embattl french ag tuesday stop idea find clos clos sharehold sharehold sharehold sharehold sharehold langu reach reach bankruptc march stag liquid liquid liquid sport year declar potent start agree form german german german manag manag good good disagree firm invest invest albert decemb deal de de individual week fund fund fund loan debt sourc sourc germ germ germ percent britain britain expect decid decid decid internet internet burd burd burd suff societ big reut blow lower busi entertain custom brok million million million legal europ europ europ europ europ europ europ europ europ europ europ europ european end pull party talk talk talk log log banqu nation deutsch deutsch deutsch deutsch deutsch telekom telekom telekom telekom telekom luxembourg luxembourg luxembourg give ceas telecommun wildgen time time mess altogether multilingual gmbh press desp sav fromsharehold identif pearson pearson caiss epargn etat financ bcee national provid investiss told snci plagu format compuserv streamlin lagarder matr hachet engl axel continu verlag success declin structur growth subscrib subscrib onlin onlin onlin onlin onlin onlin onlin onlin onlin onlin onlin onlin onlin onlin onlin servic servic servic servic servic servic servic altern plc fail fail fail new final base sell develop simil aug detail run july plan profit brill corp travel charg includ includ includ includ sa ask unidentif asset deadlin plug cancel bankrupt bankrupt multimed intern intern ditch attempt attempt ventur publish major found chang achief strateg withdraw late connect morn spring weather access make add burgeon singl operat operat operat operat concent hold left subst group
2552	C151 C15 CCAT	febru compan compan compan compan compan veget acquir acquir acquir bolst tuesday target march march countr year year year year year potent affect food food food food eat eat franc suspend caught larg capit human human quart quart debt debt michael produc report report report stat italy percent percent percent percent percent percent percent strong help scient scient govern govern govern brand advanc jump ratio busi busi busi million million million million million million million million million europ europ end end end maxim ireland monday increas increas die area kerry kerry kerry kerry kerry kerry kerry rise buy identif worry side rose rose rose focus import beef beef margin margin cut call cow cow cow diseas diseas diseas diseas diseas bse bse tralee punt punt punt bovin upward spongiform net encephalopath mad mad mad scar brain disord creutzfeldt creutzfeldt plc half half half half jakob jakob infect coron ingredi ingredi ingredi ingredi dca hanrah ciprial ciprial ciprial aim base led divid consum link link revis plan profit profit profit profit profit profit profit profit announc pretax child hamburg fruit fruit agribus brit brit brit brit dozen cast rule rule rule chairm operat operat operat doubt strain boost offic sale sale sale count death group group group
2553	C151 C15 CCAT	compan compan acquir acquir acquir life life life life life look tuesday french french year year currenc climb billion billion billion billion billion billion billion billion billion pictur cac manag good franc franc franc franc franc franc franc franc franc franc capit sound stat report percent percent percent percent percent percent percent percent percent strong strong special help lead a1 big big index contribut brok brok europ alli shar shar european assur control nation nation nation industr increas rise rise rise financ made rose rose rose rose rose austral prim growth growth structur figur figur servic insur insur insur insur insur insur insur fact fact diversif half half period axa axa axa axa axa consolid consolid consolid underl geograph const pecent basi donaldson lufkin jenret sami reinsur gotran eifb natmut surround sa revenu revenu revenu revenu revenu revenu revenu revenu revenu board power underperform mutual mutual mutual reflect hold
2554	C152 C15 CCAT	compan stak stak tuesday ag sharehold billion billion billion billion billion system fall german unit bought bought germ stat percent percent percent percent special advanc fell level big gain million drop drop industr time rose rose comput pack viag viag viag viag viag viag util net fact improv pre half half half half half sharp period period energ pape pwa incom h1 divid divid profit profit profit profit profit result pretax includ chemic chemic logist sbi bio major major major due make see operat operat mark mark sale sale sale sale tax group group group group pure
2556	C152 C15 CCAT	compan stak stak tuesday ag sharehold month year billion billion billion billion billion billion system fall german invest unit bought bought germ germ stat percent percent percent percent special advanc fix fell level level big gain million million million million drop drop drop drop industr rose rose comput pack viag viag viag viag viag viag viag spend util net net fact ago match improv pre half half half half half sharp period period energ pape pwa incom h1 divid divid compar profit profit profit profit profit profit result pretax includ chemic chemic logist particip sbi bio workforc asset dramat major major major chang due make see operat operat mark mark mark mark mark mark mark mark sale sale sale sale tax group group group group group pure
2557	C16 CCAT ECAT	compan compan compan credit econom econom tuesday ag repret record interest rate bankruptc bankruptc bankruptc low monet year year year year construc frankfurt german germ germ percent percent percent expect expect expect outlook level big big volum million million europ european european stagnat increas increas increas time momentum rise current numb insur insur half half responsibl claim develop incom wors herm herm herm herm herm herm herm kreditversicherung insolut shipbuild brem vulk verbund compar failur macul hannfr von hindenburg newsrom prem prev due polic upsw forecast mark mark group pct
2558	M11 MCAT	compan market market heav back tuesday tuesday stock clos find high high interest rate rate fair rein term term bank start point billion turn modest deal deal deal deal de franc franc franc suspend key germ meet meet lost percent percent pay expect decid eye societ pric index gain gain fomc volum thursday shar shar shar end end drop remain feder belgian belgian belgian belgian reserv virtual buy reason grow provid cite cut qual lack dull earn day resist bel hand general belgiqu bruxel lambert enthusiasm kredietbank bours held worth expend chang chang bundesbank battl repo moderat polic make afternoon underperform unchang unchang prospect hope hold hold hold amid trad lag group pick
2559	M12 MCAT	limit market market market market market emerg econom heav french french french tuesday tuesday stock stock stock stock high high union union union body interest interest interest interest interest interest interest interest rate rate rate rate rate rate rate rate month insist monet monet monet year year year kill stud currenc spokeswom spokeswom spokeswom spokeswom newspap start start start pari pari pari april point system system system view german german german denomin denomin common common franc franc franc week larg larg larg issu slat germ germ germ germ germ germ produc produc produc produc produc produc percent percent percent difficult euro euro euro euro euro euro euro euro introduc govern enjoy opt treasur abandon abandon big main blow janu exist volum volum volum show futur futur futur futur flat europ europ shar shar alli face convert european european open open end challeng domin domin contract contract contract contract contract deutsch deutsch benchmark give give remain prior author platform financ financ told cent cent cent exchang exchang exchang head effort effort work work integr satisfact london london slid critic critic play collaps risk underl rang final aim aim centrepiec develop develop develop ally link struggl july plan plan plan failur coop coop particip ready goal derivat derivat derivat plac matif matif matif matif matif matif matif matif matif matif matif matif matif matif boers boers flag curtain intern sbf secur secur secur outcr outcr dogmat attempt delicat gerard joint total pfauwadel agef bond bond notionnel notionnel major real real achief bund chang chang liff liff competit strateg strateg strateg recommend mass mass risky creat creat advant electron electron delay count trad trad trad trad trad trad trad trad trad trad group prepar option option option
2563	M11 MCAT	limit market market retail gener thin thin tuesday stock stock stock clos clos high rate touch climb bank point point extrem billion select manag invest food deal slight report percent percent meet expect decid eye eye pric index gain volum volum thursday open minim leav talk remain remain feder reserv tone narrow august rise press commit charact health rose half sharp dull posit rang outcom americ wary simil turnov day latin result announc septemb uk fed fed total due bundesbank holiday make madrid madrid ibex unchang peset peset peset add bbv pryc busy swing prospect thought amid trad trad trad trad trad
2564	E131 E13 ECAT M11 MCAT	recov stak bring react market market market market hous quiet thin tuesday hard stock stock high high interest rate low touch rebound mild data data data tie wholesal forward invest firm firm deal deal annual annual larg today today produc report lost percent percent percent percent percent percent percent percent percent percent percent percent percent percent meet anal expect expect expect help help govern govern subdu eye italian italian italian pric pric index index fomc show sold anticip thursday shar shar shar shar shar support support support end party techn monday monday monday remain increas edg lire lire lire polit august rise pow pressur rose rose focus cent loss research city continu continu inflat inflat inflat inflat inflat autumn figur servic move play uncertain dip prelimin consum consum gave commun commun survey wednesday wall street chanc passeng blu blu chip chip june june june june june due morn holiday holiday holiday rely arm activ milan mibtel mib30 roman surviv prod refound eni eni oilfield saipem offic monted left left pirel trad trad michelin tyr
2565	C152 C15 CCAT	omit febru compan compan down westph notch reult unexpect unexpect tuesday ag stock repret high month hid year year year construc construc full output point billion billion billion billion writ writ mid huge today today michael germ germ stat percent percent special expect root fell fell philip busi dissolut million million shar end end dividend age reserv hurt off payout ground financ financ rose rose loss loss effort forc propert propert sharp posit posit restructur period new direct aim aim aim problem problem wors offset earn portfolio portfolio result result break break break post post hand ran achief make negat negat add forecast resign operat operat compens mark mark mark mark mark mark ord ord sale group group holzman holzman holzman holzman holzman
2567	C18 C183 CCAT GCAT GPOL	stak compan compan bring bring bring market floor knowledg faust evident hous bertinot bertinot bertinot bertinot bertinot bertinot bertinot bertinot bertinot bertinot bertinot stet stet stet stet stet stet stet stet stet stet stet back thrust marxist rug sergio tuesday tuesday stock la olivier hard dilibert dilibert rank fascist union interest interest reaffirm gianfranc pasquin pasquin month explicit low march insist botch own truth ross ross year year rome ahead repubbl ricket isolat consob mediobanc shak privat privat privat privat privat privat privat privat wield wield bank disproport point retain suit suggest firm firm file seek guid capit quart issu stat stat stat italy italy strong strong unveil anal anal requir scient balanc govern govern govern govern govern govern govern govern govern govern govern govern govern govern govern lead lead lead felt appear appear world quest italian italian italian big defend busi busi enlist feet reform shar shar alli support support support support assur end pull party party nation merch secret lawy monday gold gold gold danger badly diplomat polit polit deput rais press off pow pow pow bear daily financ confid weak told manoeuvr cent exchang warn warn sever work work forc continu prim prim lay minist numb move parlia parlia parlia critic play serv fail posit collaps telecom part part program rescu sell sell vote corpor commun commun commun commun council plan dang threat threat includ post inspir regulat rippl comment budget element favor determin major chang strateg oppos oppos oppos oppos chairm process don make allow add partn fear mort milan ambit roman roman surviv prod prod prod prod prod prod prod prod prod refound hold hold hold sale sale sale sale count left left trad influ influ influ influ influ influ influ group group
2568	C181 C18 C31 C313 CCAT GCAT GDIP GJOB	compan compan nasdaq market market market small rival tempor tuesday stock sharehold sharehold merg merg receib pari adia adia adia adia adia adia ecco ecco ecco ecco adecc adecc adecc adecc manpow swap spain firm firm firm firm unit unit list list employ franc franc franc capit capit capit switzerland stat stat percent percent percent percent percent meet approv approv special cash world world big big personnel personnel shar shar shar shar shar shar deposit increas increas swiss swiss swiss off exchang austral move job americ vote sa plac favor intend make fulfil creat
2570	C16 C181 C18 CCAT	negot stak compan compan compan compan compan compan compan early credit rival tuesday money idea find clos clos sharehold sharehold sharehold sharehold interest reach reach bankruptc stag liquid liquid liquid sport begin team declar data agree form german trust good lorrayn invest albert fax deal deal de de individual week fund loan debt sourc sourc sourc germ germ germ percent percent britain britain decid decid name burd burd suff societ big reut blow entertain custom brok million million million legal legal europ europ europ europ europ europ europ europ europ europ brussel end pull party talk talk talk log log banqu nation deutsch deutsch deutsch deutsch deutsch deutsch deutsch telekom telekom telekom telekom telekom telekom telekom luxembourg luxembourg luxembourg remain give ceas telecommun wildgen time smith altogether august august desp sav pearson caiss epargn etat financ bcee national investiss told snci network compuserv engl continu success declin subscrib onlin onlin onlin onlin onlin onlin onlin onlin onlin onlin onlin onlin onlin servic servic servic servic plc fail fail new direct final base sell develop simil commun detail run july travel brill coop includ includ includ sa ask asset asset asset deadlin plug bankrupt bankrupt intern intern inform memb ditch attempt worth publish major dust late unnam process morn owe meigh weather access newsroom add add singl chos operat operat operat left subst bit option pure
2571	M11 MCAT	market grab clear tuesday tuesday fin fin stock clos clos clos high high high high high month month month sport year ahead octob bank point live live good firm unit amer amer amer amer nokia nokia nokia nokia hex ericsson valmet valmet harnischfeg quart domest stat meet percent percent percent percent strong strong help slic govern advanc outlook markk markk markk markk markk gain index brok brok brok million shar shar support overse overse give feder reserv swed rise machin reason rose rose rose cent improv telecom pape outcom propel turnov profit optim caut account bours demand demand bond competit competit hit set moderat polic make boost trad group group
2572	M11 MCAT	compan limit market market market market unexpect evident back tuesday stock stock stock money clos clos clos clos clos clos clos high high high high high high rate rate low year potent data trim point point point extrem fall line good firm firm invest invest unit deal deal deal deal week red aex pile ship shell gmt downsid germ germ report report report aliv buba percent percent meet meet confin pakho pakho anal anal anal van van expect expect expect expect expect ommer ommer digest extraordin cash nutric reit nedlloyd pric slowdown index index fomc brok million million million thursday thursday shar shar shar shar shar end push drop dutch dutch dutch guild guild guild guild guild guild guild guild guild guild time tone buy buy confid rose focus cut continu numb growth figur initial net net half half half take take posit posit posit dip new new outcom basi h1 corpor corpor justif july transport royal day day day day profit profit result result result announc charg resist wednesday great impact power glean suppl major chang due due m3 m3 steam repo repo recommend add operat solid keep group
2573	C11 C16 C17 CCAT	negot compan compan compan compan compan compan early rival tuesday money idea find clos clos sharehold sharehold sharehold interest reach reach bankruptc stag liquid liquid liquid sport begin team declar data agree form german good invest albert deal deal individual week fund loan debt sourc sourc sourc germ germ germ britain decid decid name burd suff big reut blow entertain custom brok million million million legal legal europ europ europ europ europ europ europ europ europ end pull party talk talk talk log log nation deutsch deutsch deutsch deutsch deutsch deutsch deutsch telekom telekom telekom telekom telekom telekom telekom luxembourg luxembourg remain give ceas telecommun wildgen time altogether august august desp sav financ told network compuserv engl continu success declin subscrib onlin onlin onlin onlin onlin onlin onlin onlin onlin onlin onlin onlin servic servic servic servic fail fail new final base sell develop simil detail run july travel brill coop includ includ sa ask asset asset asset deadlin plug bankrupt bankrupt intern intern inform memb ditch attempt worth publish major dust late unnam process morn owe weather access add add singl chos operat operat operat left subst bit option pure
2574	M11 MCAT	recov compan market market market sect sect sect sect gener econom slip tuesday money clos clos clos clos clos drug drug drug high high high high high month year year ahead rebound rebound data bank bank billion german ericsson peopl week slight mine report report report percent percent percent expect expect expect sent astr astr astr mood atla copc slowdown miner index index index gain gain trelleborg bout nordbank brok brok handelsbank shar shar shar overse end drop stead swed swed crown crown crown crown crown crown crown crown crown crown crown crown weak weak rose rose inject lose loss upbeat growth figur figur half half posit posit buoy telecom period engineer valu profit result announc post post hand blu chip june suppl major chang m3 hope boost trad group
2577	C151 C15 CCAT	metal metal metal metal compan market econom econom tuesday low year currenc currenc billion billion billion billion billion fall unit mine mine report report fell fell pric pric pric busi trelleborg trelleborg trelleborg trelleborg volum million million million million million million million million million million million tht rend european immun strength arg drop drop drop virtual virtual swed swed crown crown crown crown crown crown crown disadvant weak weak weak move net half half half half sharp sharp dip dip period period period period note incom led engineer divid earn profit profit profit profit due unchang operat operat operat distribut sale hedg group group group
2578	C151 C15 CCAT	febru compan compan compan compan acquir acquir acquir novemb bolst tuesday target target perform soar year year year full potent affect line food food food food equit equit franc larg quart quart debt debt debt michael gmt produc stat report report report report italy percent percent percent percent percent percent percent percent percent strong strong special brand advanc ratio ratio main pric interim busi busi contribut million million million million million million million million shar shar europ end end end maxim ireland ireland dividend remain increas increas area kerry kerry kerry kerry kerry kerry kerry current buy stood wid confid side rose rose focus margin margin cut purchas satisfact satisfact bse punt punt punt punt punt bovin upward spongiform net encephalopath scar improv pre plc half half half ingredi ingredi ingredi ingredi dca dca hanrah ciprial ciprial ciprial gear outcom aim basi penc led consum divid divid divid revis turnov plan profit profit profit profit profit announc fruit fruit agribus june irish chairm unchang operat operat operat operat operat reflect sale sale trad tax group group group group group group pct
2579	G15 G154 G155 G158 GCAT M132 M13 MCAT	fin french tuesday rand rate rate lira lira lira currenc currenc currenc yen turk unit franc franc franc afric austr canad markk italian european european span ecu ecu kron kron kron kron greek deutsch drachm dutch iceland malt guild schill swiss portugu belgian escud swed cyprus forint sloven norweg tolar danish foreign foreign commit austral zealand punt pound south gave dollar dollar dollar dollar irish japan peset sterl mark hung offic
2580	C151 C152 C15 CCAT	econom tuesday interest interest rate low low low year year year year year year year bank bank bank bank bank bank bank billion billion trend debt slight stat percent percent percent expect expect extraordin advanc lend lend lend big big big big rest interim provis denmark denmark denmark million million million million million million anticip thursday monday increas stabl crown crown crown danish bet unidanmark unidanmark unidanmark unidanmark unidanmark unidanmark foresaw bg den dansk rose rose loss continu growth growth upward net net improv pre pre half half half half half period incom incom earn earn attribut compar profit profit profit profit result result result announc announc post post bad prev project expend releas mortg forecast operat top fee fee boost slow tax tax group
2583	C17 C181 C18 CCAT	febru compan compan acquir acquir acquir acquir tuesday target target target soar stag year year year food food equit equit bought debt debt debt percent percent percent percent percent special requir fell ratio reut busi busi million million million million million million million end end end end end remain industr increas kerry kerry kerry solutech aftermath rose told austral austral cut purchas punt punt net half pound pound pound plc ingredi dca dca dca period ciprial ciprial ciprial gear gear aim aim interview revis revis fruit spokesm spokesm joint ventur june irish irish irish irish due late add group group pct
2584	C152 C15 CCAT	react recent french tuesday la stock sharehold high high month year year rebound disappoint cheap pari fall food deal franc franc franc key knock produc gmt yield yield percent percent anal anal anal help raw outlook pric pric pric pric pric interim busi show test shar shar span dividend oil oil techn attract buy harvest daily pressur past feed bounc corn corn rose eridan eridan eridan eridan beghin maiz mater input margin starch call tribun desfoss oliv oliv drought nice provok annie bonal cholet anim agro predict half sharp sugar put cost cost cost earn dupont result result bad reduc bours favor highlight late weigh weather branch solid surg sign group prepar
2585	GCAT GPOL GVOTE	compan compan early early early early early market tough elect elect elect elect elect elect elect elect elect rival gener econom econom econom welcom tuesday tuesday tuesday target find desir union union high high opinion perform rate way monet stag countr countr countr year year year year year year year year year schedul schedul schedul octob octob privat conserv point sea turk billion billion manag discount invest borrow deal join join free indicat week fund debt debt debt stat percent percent meet meet special expect impl decid decid moment govern govern govern sacrific reit reut janu index show eu reform shar face european european long party party drop greek greek greek greek give win cabinet polit cyprus stabl press rise social extr public public public public reason foreign financ told cent plagu cite warn cut call call call purchas right prim inflat inflat inflat inflat minist minist gdp gdp growth premy premy spend spend move move pm simit simit simit simit simit simit simit simit dimitr rep andre papandreou scor disori strif restructur restructur sweep territor put aegean aegean alexandro poll papadopoulo papadopoulo cost greec greec greec criter emu emu emu final final tower athen turkey turkey brass favourit weapon divid vote mat run differ island announc announc relat includ optim hand septemb plac plac spokesm slash slash budget intern memb bours june friday friday friday found aver late late set make measur possibl top boost demo offic offic offic ail tax prepar
2586	E211 E21 ECAT	early sect econom target high high high high body month month month year year year point billion billion billion spain debt percent percent percent percent percent percent percent percent percent percent expect help help govern govern burd fell fell show span social public financ financ rose rose rose cent cent minist gdp figur figur figur servic trill trill trill trill trill cost date incom incom incom incom accumul accumul accumul autonom corpor july july person reduc revenu revenu budget budget secur total deficit deficit deficit deficit deficit releas add peset peset peset peset peset peset region tax tax tax tax surplus
2587	C171 C17 CCAT	compan compan compan compan compan preserv market tuesday ag ag money target target sharehold sharehold interest interest month month low own year year year year receiv full agent bank regist regist suit manag amount invest list franc franc franc franc franc franc franc larg capit capit issu report switzerland switzerland percent percent percent percent percent pay expect lead ratio pric telephon million million million million million million million million million shar shar shar shar shar shar shar shar shar shar face dividend dividend daniel swiss swiss stabl august august august public public public attract off off payout tourist tourist financ made told cent exchang exchang network offer prim net net half chief new apply basi picturesqu tower base incom incom divid jungfraubahn jungfraubahn jungfraubahn jungfraubahn jungfraubahn jungfraubahn jungfraubahn jungfraubahn jungfraubahn jungfraubahn jungfraubahn sfr jungfrau jungfrau jungfrau earn scenic railway turnov eig moench grindelwald want transport profit profit wengen surround travel result muer interlak reinhardt reinhardt includ vontobel bern bern bern bern bern cantonalbank cantonalbank spar spar walt leihkass kraftwerk goal bkw fmb plac leikass town hertig niels zurich editor worth held due chairm broad pete confer operat region region mountain mountain hold hold offic sale sale sale trad group group
2588	C151 C152 C15 CCAT	metal metal metal metal metal metal market market econom econom econom cop tuesday slump rate rate low low year year currenc currenc currenc generat billion billion billion fall fall fall fall unit unit unit larg quart mine mine report report report stat expect expect suff fell mean level level main pric pric pric pric pric busi trelleborg trelleborg trelleborg trelleborg trelleborg trelleborg volum volum million million million million million million million scenario flat overse european rend rend immun drop case remain area virtual virtual swed swed crown crown crown crown crown crown crown crown crown current disadvant financ past weak weak weak weak weak weak exchang exchang loss forc move net half half half half half half half sharp posit restructur dip dip period period period period period incom led engineer h1 divid attribut compar compar profit profit profit profit profit profit profit result post invent effect item h2 apprec due unchang see operat operat operat assum distribut sale sale hedg group group group
2590	C151 C15 CCAT	compan compan early early market market novemb tuesday segment high rate month month year year year year year currenc isolat billion poor invest common maintain quart quart slight report report report percent percent strong felt fell rest rest interim exist million million million million million drop sum sum increas increas increas swed swed swed swed swed crown crown crown crown crown crown crown current financ financ financ weak weak exchang western blam improv improv half half risen period period note part part const lift bottl export develop develop led h1 drink earn profit profit profit profit result post post effect effect item item item plm plm plm plm plm plm plm plm bever ab industrivard plast europea carbon ebb season weather negat make make unchang forecast sale sale split group group
2593	C151 C15 CCAT	market econom tuesday stock clos interest interest month low low chri beneex year year year year bank bank billion billion billion billion billion billion squeez gmt stat percent percent percent percent anal expect lend lend lend big rest slowdown denmark denmark million million shar copenhagen deposit monday sustain crown crown crown crown crown crown crown danish unidanmark unidanmark unidanmark rose rose growth growth net improv pre half half half half half period incom earn profit profit profit profit profit result result result project unibank unmov follet unchang newsroom mortg forecast forecast operat operat fee fee trad tax group pct
2594	C12 CCAT	compan publ tuesday ag receiv newspap agree manag deal seek seek germ report pay decid million legal legal contract drop off media investig offer offer learn fami step chief chief chief new fine direct interview run july accept board boers mannesman mannesman mannesman advic advic wern diet diet diet newsroom prosecut prosecut prosecut zeitung steer terent execut gallagh bon mark mark suspect
2596	C42 CCAT GCAT GJOB	negot negot rhin rhin westphal westphal novemb novemb liber adopt retail retail retail retail retail struck struck rhineland rhineland palatin palatin lieu tuesday tuesday tuesday weekday saturday collar union union union union union union reach applic shopown shopown month ahead gerhard keuchel hde hde plead start start swift north north deadlock agree agree agree sporad affect wholesal german drag suggest expert guenther wassman wassman deal deal deal deal deal baulk seek bavar employ employ tenth suspend comprom controvers berlin germ germ germ germ stat represent represent east percent percent percent percent percent strong pay pay hour hour hour hour end end round talk talk talk talk talk talk industr time rise rise press extr off urg confid weak warn warn call work work work work work work assoc declin success servic spend strik strik strik take chief shop shop shop aim wary consum plan plan day wag wag wag wag wag wednesday cope chanc plac accept town marl resum resum resum resum indefinitie whit hit morn broad action add allow allow region region region hope hbv hbv disput dag dag
2597	GCAT GPOL GVOTE	study elect refer lure manipul back tuesday way countr year year citiz system fall invest peopl issu method represent switzerland local requir govern lead enorm internet internet internet internet internet internet internet world accessibl nation nation techn cabinet cabinet cabinet swiss swiss swiss swiss swiss time feder current urg wid frequ box comput comput comput comput comput network network network gradual call numb parlia parlia delegat direct direct pape vote vote vote vote vote vote vote council dang hack great reject vuln vuln memb major request cast process dismit dismit young polic make risky add referendum referendum referendum referendum sabot ballot ballot ballot turnout mushroom demo demo demo hold electron
2599	C151 C152 C15 CCAT	compan compan compan compan early early early acquir acquir market market market novemb slip tuesday breakdown target target target record high perform progress year year year year year year ahead full potent north affect line line food food food food food franc quart quart complet slight produc report report report report report stat percent percent percent percent percent percent percent percent percent italy strong strong anal special expect brand advanc raw busi busi busi contribut show million million million million million million million million million million million million million million million million european european end ireland maxim remain increas increas increas increas increas area kerry kerry kerry kerry kerry kerry kerry kerry kerry kerry kerry rise current current wid financ confid rose focus mater margin margin margin integr satisfact satisfact bse punt bovin spongiform scar improv pound pound pound pre half half half plc ingredi ingredi ingredi ingredi ingredi dca period ciprial ciprial ciprial ciprial cost geograph outcom americ basi consum divid divid divid divid exclud turnov turnov turnov turnov profit profit profit profit result includ fruit fruit agribus irish irish irish irish irish irish major chang combin newsroom add operat operat operat operat operat operat reflect marget encephalopaht static sale sale sale sale sale sale dublin trad trad tax group group group group group group
2601	C151 C15 CCAT	compan nov nov sharehold interest month yr shr div regist retain amount food fund debt stat pay payabl million million million dividend kerry kerry goodwill goodwill punt net net pound plc pre half note date date base penc incom turnov profit profit profit profit pretax includ charg charg june june irish irish operat amort defer tax tax tax group pct
2602	GCAT GJOB	guent stak payment karel calm nikolaus market anti der der pas pas saxon saxon saxon kurt biedenkopf econom econom christ cdu helmut mr mr mr volkswagen kohl kohl ag tuesday overrod clos mosel rank chemnitz unchalleng countr touch ahead spokeswom conserv german war carmak debat magazin fund germ germ stat stat pay van van van van van van van van cool eye tell sent law belief aid aid eu million million europ europ european european brussel brussel brussel end talk talk monday weekend didn democrat chancellor rais tone public public public extr stood row row payout grow commit commit commit commit worry paid told focus lose pack warn defy minist minist compet premy bid size new job interview propos ally simpl exclud justif contact contend break affair concern tend accept proceed proceed object spokesm spokesm intern automot spur argu releas afternoon newsroom bon bon confer mark mark hope ord left subsid rexrodt rexrodt rexrodt disput bit miert miert miert miert miert miert block vw vw
2603	E12 ECAT M132 M13 MCAT	tuesday frankfurt frankfurt fix fix monday intervent dollar dollar bundesbank mark mark mark
2604	C42 CCAT E41 ECAT GCAT GJOB	compan compan early sect sect carry tuesday ag ag slump orenstein koppel month from fry krup krup hoesch foreseeabl year year year construc construc hundred germ report futur million million end end machin machin made loss cut cut cut improv pre restructur period job job job program lift hundr divid profit result workforc spokesm drast make forecast operat mark mark sale subsid tax
2605	C13 C181 C18 C34 CCAT G15 G157 GCAT	stak clear tuesday union merg construc klockn klockn arus arus aquir stahl und cover metallhandel industriel ecsc ecsc tube reinforc hollow dealt german bent treat produc stat percent approv approv decid eu aspect european european european industr gmbh buy commit commit cut section bar commun alumin steel sa essent regulat concern elabor suppl coal separat manufactur distribut
2606	C181 C18 C34 CCAT G15 G157 GCAT	acquir market market small clear clear gener gener ag tuesday union german german german compunet compunet compunet compunet ge overlap capit capit stat law exist eu eu shar european european techn buy commit commit made comput compet geograph exclud corpor electr electr plan accept inform ventur operat operat operat
2607	C13 C34 CCAT G15 G157 GCAT	compatibl market market clear clear ag ag tuesday german common siem siem som som interior interior allibert industrie larg produc stat lead instal eu european strength domin party rais car car commit commit integr compet posit develop joint ventur ventur suppl operat concent doubt creat sale
2608	C11 CCAT G152 G15 G155 GCAT	clear clear ag ag german siem siem som som interior interior allibert industrie produc instal eu european car car commit integr develop joint ventur ventur creat sale
2609	C152 C15 CCAT	market market market thin tuesday french rate chew receiv good firm firm deal client bought percent anal advanc gain shar shar techn rise pow pow pow car research assoc satisfact posit new poll poll americ lot base develop truck bours polic boost pirel influ michelin michelin michelin michelin tyr pick
2611	E121 E12 ECAT M11 MCAT	early early popul market market clear sect gener ag ag ag ag thin tuesday tuesday stock stock money money interest rate rate rate month month frankfurt data data data generat point point view german invest deal deal deal week week impuls rwe basf gmt germ percent percent expect expect shift mix level big pric slowdown index show volum shar shar shar support support open open push case case give win stead stead momentum stabl provid fade cut cut cut growth figur viag util util util diversif fail fail posit note earn july day day chemic chemic blu blu secur chip chip dollar dax dax suppl suppl m3 m3 repurchas morn repo repo pfennig pfennig pfennig bay releas releas mark mark mark mark mark ord hold boost boost trad
2612	E12 ECAT	recov febru market market tuesday money interest interest interest interest rate rate rate rate rate rate rate rate rate low low beneex ahead restrain bank april agree regist view good discount wait capit spd germ germ germ stat overdu overdu percent percent meet meet ingrid matthaeus may may expect anaem reignit lead fix main pric busi million thursday thursday elimin democrat deput stabl social unemploy cent cut cut cut cut cut cut call inflat stimul parlia export consum consum council wide reward wag wag histor demand oppos bundesbank bundesbank bundesbank repo repo moderat releas newsroom terent fear gallagh bon offic sign
2613	C1511 C151 C152 C15 CCAT	stak tuesday high year full franc gmt report percent percent percent conglom chargeur chargeur textil jump path path path path path path shar bskyb bskyb bskyb increas media plc part profit profit intern june split trad group
2614	C312 C31 C313 CCAT	compan market market market tuesday fin target target reach fast sep year year year year year manag good food food food employ oy bought produc stat percent percent percent raisio raisio raisio raisio raisio raisio fim fim raision tehtaat markk margarin margarin margarin heinio polsk modern olsen polish polish polish polish polish poland poland million million shar shar end grow grow work net fact direct turnov chemic object achief spac cond sale sale subsid subsid group mln
2616	E211 E21 ECAT GCAT GPOL	rate rate rate rate low newspap germ spd spd percent percent percent percent lead lower scharp scharp scharp scharp rudolf hannoversch allgemein party democrat prior consid current social cut cut cut cut autumn parlia put interview propos incom comprehend favor oppos zeitung top top top subsid tax tax tax prepar
2617	C152 C15 CCAT	intens bring market market market market market market market market small recent launch launch launch tuesday hard slump slump idea high month month year year year year year year year fortun term disappoint generat north north billion billion regist regist fall fall fall fall fall manag manag poor firm modest invest unit unit indicat week week light quart bzw germ germ produc produc stat stat report report report report percent percent percent percent percent percent percent percent difficult anal anal anal anal anal anal anal anal expect eye shift philip reut reut busi model model model woe volum volum sold flat shar shar shar shar european european european european european shrink uphill volut volut volut volut volut volut volut volut volut volut volut volut volut volut volut gloom drop s40 v40 grim barb barb barb industr question badly panic bjorn matteus swed swed swed stockbrok crown crown misfortun rise situt ayton ayton terribl reason replac car car car car car car car car car car car rose told side lose loss pret cut fare continu declin compet autumn figur ago pre half half half half half half half jame capel period poll brazil cost rang south americ americ americ americ lot develop incom wors wors divid divid divid earn earn struggl july compar compar profit result post wednesday wednesday truck truck truck truck truck truck truck truck truck truck truck whol bad reject account present total total ab chang achief hit hit due due due due robert battl don make manufactur forecast forecast operat operat top region sale sale sale sale sale sale sign compound tax group
2618	C152 C15 CCAT	payment compan compan compan capac slip tuesday ag high high month low soar year year year year year year year ahead billion billion fall invest key stat report report percent percent percent percent percent percent austr austr austr expect cash pric pric pric million million million million million million dividend dividend dividend dividend elimin increas schill schill schill schill schill schill schill schill schill rise mayr mayr mayr melnhof melnhof melnhof financ cartonboard cartonboard cartonboard cartonboard weak karton paid mmk mmk mmk mmk rose reinst foundat laid flow margin wast wast utilis spit integr fold carton intr declin rattl scrap satisfact net net ago improv improv improv half half half pre pre posit period new dip bright consolid consolid pape pape develop develop divid divid deterior earn compar compar profit profit profit profit profit result degree reduc prev elabor due due process releas add manufactur see coupl confer operat sale sale sale sale sale sale tax tax group group group
2619	E121 E12 ECAT	react react early market market market econom gener tuesday target money money money rate rate rate monet frankfurt bank bank point reinforc good annual annual week guid germ germ germ germ meet percent percent percent percent percent anal anal expect expect reut main main show futur thursday shar adjust remain increas consid cent margin cut warm growth growth growth initial uwe figur figur figur figur angenendt bhf predict poll rang basi council july july july july optim expand june suppl suppl bond bund aver bundesbank bundesbank bundesbank bundesbank m3 repo repo season polic forecast forecast possibl sign ceil trad slow slow slow eas eas
2622	E11 ECAT	recov econom econom interest rate rate low march year year privat point point deprec annual franc franc key gross domest produc stat switzerland switzerland switzerland switzerland percent percent percent percent percent percent downward expect lead lower face swiss swiss swiss foreign grow weak weak provid research continu inflat gdp gdp gdp growth growth growth growth lack half recess bak bak bak bak bak bak bak stimulus consum consum revis revis revis detail institut prev prev due partn heart forecast forecast forecast forecast forecast forecast forecast assum trad trad pct
2624	C152 C15 C31 CCAT	compan compan compan early early market market launch retail situat tuesday ag rate month year year year year currenc full billion billion billion contain domest produc produc produc germ percent percent percent percent percent percent percent percent percent percent percent strong requir expect expect extraordin jump jump well well well well well well haircar haircar busi busi dissolut provis anticip million million million million million million outstrip hairdress hairdress stagnat long scent cosmet versus abroad outpac increas increas increas rise rise rise rise foreign rose rose nomin nomin continu success growth growth figur half half half half pre posit risen restructur period basi develpo becuad base incom earn earn plan compar profit profit profit core includ account exceed exceed present total achief due measur manufactur see operat operat pace mark mark mark mark mark mark mark sale sale sale sale sale sale sale sale sale sale sale sale sale tax
2629	M11 MCAT	recov recov market market refer tuesday stock stock clos clos plung high high march halt beneex beneex countr hotel cheap receib cover cover bank april point point billion stand invest deprec wait larg week issu fund fund fund domest domest report local local help help help govern pric index index gain gain rally provis provis brok million shar shar shar shar shar end deposit monday monday edg short short buy buy foreign head loss forc bombay bombay continu bajaj bse bse bse hindalc leve excess specul itc ll part underl ranbax basi reli sell sell till institut institut plan nse nse undercur shaky plummet fii fii gdr gdr gdr rupee rupee rupee rupee tisc sbi sbi telc hind account secur auto demand combin glob tomorrow indian commerc trad trad trad pick
2630	C151 C15 CCAT	compan limit year larg quart produc distill distill distill stat provis million colomb financ net net note sell turnov profit result rupee sri sri sri lank lank lank q1 q1 q1 unaudit alcohol newsroom tel tax pct
2631	C42 CCAT GCAT GJOB	compan compan compan compan compan compan compan novemb market market market market market track star tuesday shutdown broker sharehold month month month month month color own begin year year review privat start system fall prefer line line manag manag manag manag spain firm decemb deal contain list list franc peopl capit domest produc produc produc produc erod stat percent percent percent italy natur local local local anal anal expect govern paint fix suff big janu million million million million million turnaround turnaround shar shar shar shar netherland print control increas time public buy buy colomb colomb colomb foreign compil commit monopo plagu network tast head offer work structur figur quick net net strik strik fact fact fact play half half fine direct direct aim shop sell sell sell develop develop export export export export problem link earn contact compar profit profit wag hap result rapid rapid resolut rupee rupee rupee rupee rupee rupee rupee rupee labor labor hand workforc workforc sri sri sri sri sri item lank lank lank lank lank lank lank lank lank lank lank ceram ceram ceram ceram ceram ceram ceram ceram ceram ceram jagath peir peir peir peir peir peir peir crippl piliyandal piliyandal expend suburb ventur june prun japan dankotuw dankotuw dankotuw major porcelain porcelain porcelain porcelain porcelain flexibl chang avank respons herath aver jardin flem regain pricey motivat motivat motivat incent incent tune uniwalk make make noritak inadequ manufactur forecast usa aggress operat electron sale sale offic trad staff staff establ
2633	C11 C13 C181 C18 CCAT	febru stak stak compan launch sect sect sect econom econom submit carry tuesday union langu reach own begin promot ahead page newspap newspap newspap tie retain invest equit equit equit equit wait controvers domest domest stat report percent govern decid rest reform overse open nation nation industr industr time sia sia articl singapor singapor singapor foreign foreign foreign foreign foreign ground airport monopo civil civil civil civil loss quot minist minist minist minist minist india india india india india devot front chief part program energ propos propos propos propos propos tata tata tata tata link ban plan plan travel particip particip airlin airlin airlin airlin airlin airlin expand comment board reject aviat aviat aviat aviat aviat aviat aviat air air joint joint ventur ventur dozen infrastructur oppos meant make ibrahim spik shor dimantl indian fipb hold offic
2634	C172 C17 CCAT	mgt conc praecip limit emtn sep sep year year full und manag borrow list de spread issu straight aa pay pay lead home pric law moody aa3 matur ecu ecu coupon typ national prov engl forc london step note note program date sell announc kredietbank gov bond bond set newsroom nib investeringsbank amt iss reoff lux freq denom fee neg sale plg crs tax deflt maj ctry pct mln mln
2635	C21 C312 C31 CCAT E512 E51 ECAT	compan compan compan early early crimea tenfold cormick cormick cormick cormick cormick epic epic aktash aktash aktash kyrmtexasnaft lviv api grav paraffin sulphur karen gas gas matus interest march liquid begin undertak term spot ukrain ukrain quart produc produc drill drill percent local canad well level janu janu sold sold million long control contract greek greek crud oil oil oil oil oil oil increas rise current current buy financ financ ronald london destin ll ll program energ greec greec bpd basi problem develop develop export export export export contact day degree great field refin refin plac barrel intern secur joint ventur promis process need weather newsroom partn partn presid content independ establ
2636	GCAT GSPO	anton der heav back tuesday record record union rugby delug transva transva transva game halftim atroc pitch torrent gerhard rain team team team hail hail provinc provinc lash matthew matthew kickoff warmup pelt cover captain captain captain eug eug superbl overcom boland midweek stand jonah jonah lomu lomu limp turn knee ofis ofis tonu tonu de rush rush alam alam ierem ierem carlo carlo complet dewald allen basson swart swart wynand lour percent fanie carl heym van lincoln bensch jage kleinj vict tromp beuk appear ferreir lauf abandon luka rocc big blow peddar hanr merw andraw leon boshoff rodney test mitchel wat andr coetz hour tenk hendrik tabai matson tain randel chrest davi win win blackad glen taylor phil coffin hewit return tony blair ground ground frequ spent spent western western western western tod oliv ronald numb zealand zealand zealand zealand tour tour match near play half scor lars put wing struggl minut coop coop black string prev ran respons whit cond cond cond battl joe hare hare midway norm mark eric eric hold left
2637	GCAT GSPO	tuesday union rugby transva transva halftim matthew ofis tonu rush alam ierem carlo convers spent western western zealand scor coop coop black eric beat beat
2638	GCAT GSPO	stay stak stak clear train tuesday tuesday gianfranc cup race race race race race year year year year disappoint hist hist manag length length de de huge prestig michael breed bill vict km home home storm test round win win win hors hors finish finish hall hall hall hall hall hall hall hall blaz blaz turf turf turf juddmont sandown eclips rid rid jockey champ champ frankie dettor dettor dettor dettor furlong ascot goodwood bijou ind jason success weav belong sheikh quick moham godolphin godolphin saeed bin ago suroor twent wollow emulat half stamin enthus simon crisford newmarket prix arc crowd triomhp favourit led book book hill run run island royal ask great intern intern chang season mount steer operat leg pace captur father father group
2639	GCAT GSPO	stak train tuesday own race race year york length length quart michael km dist win win hors hall juddmont juddmont rid frankie dettor bijou ind jason weav godolphin saeed upward bin suroor pound half mile old favourit hill run island result result ran intern intern group
2640	GCAT GSPO	mexic german lind class class round monday swed gar asa numb ten ten toshib toshib tourna prefix denot seed ai sugiyam gavaldon taiw naok sawamatsu sabin carlsson lisa raymons shi ting wang miriam wild result result zina hack jackson japan japan angel beat beat beat beat beat orem
2641	GCAT GSPO	stay draw back hard clos rank rank rank rank rank rank rank month game game cup cup countr year year year year year climb schedul shak point point german good good good good ukrain week week slight michael lost lead vict pair felt felt protect suff home world main rest rest rest david brok convert andr open open open open open open round round round fought monday monday give elimin stead win win time swed current past confid confid lose work circuit success success washington servic servic tour court won match match match match match play play play play take take take fail ten ten hamlet hamlet hamlet tourna final seed seed seed shap day day plan plan minut break upset post unseed unseed prinosil prinosil waldbaum hand atp atp titl cincinnat agass morocc built youn el el aynaoui aynaoui sixth hicham araz araz araz araz araz nicol lapent ecuador lefthand eighth magnus chang chang chang chang chang chang chang larsson larsson larsson larsson larsson tenac los fractur angel foot andrei set set medvedev medvedev bologn action need overcam qualif doublefault stretch top top hold beat beat beat beat
2642	GCAT GSPO	martin cup cup german spain albert michael italy canad david round monday russia swed swed czech numb bulgar argentin ten ten hamlet hamlet tourna prefix denot seed result result prinosil waldbaum morocc morocc youn el aynaoui hicham araz nicol lapent ecuador magnus chang chang larsson andrei israel republ slovak karol thom kucer guillerm cana johansson stefan pescosolid dam max mirny serg bruguer cherkasov nir welgreen beat beat beat beat beat beat beat beat
2643	GCAT GSPO	sixteen sensat venus barbar ham rittn katarin draw studenikov medal arantx sanchez sanchez correct correct vicario vicario feel conchit martinez martinez tuesday tuesday hardcourt tuneup spaniard rank rank bye high year year year year year year year william schedul wasn german good unit week germ straight gmt stat couldn balanc vict vict world main defend gain class face netherland open open open career round round round round haven monday stead time swed swed oust olymp ground confid confid confid asa bounc bounc champ entry match match match won play play play play play improv event sweep rhythm ten ten toshib toshib attack final americ seed taiw naok sabin carlsson carlsson carlsson lisa lisa happy raymons raymons raymons raymons shi run run run ting wang miriam minut hack plummet unseed wednesday silf japan found chang set dismit slovak top reflect relax beat baselin orem groov sawatsu
2644	GCAT GSPO	attend attend attend attend attend attend attend attend attend attend attend attend attend attend attend attend attend attend attend attend attend attend tuesday powel andr iceland aggreg aggreg aggreg aggreg aggreg aggreg aggreg aggreg aggreg aggreg aggreg aggreg aggreg aggreg aggreg aggreg aggreg aggreg aggreg aggreg aggreg aggreg aggreg aggreg malt cyprus cyprus dynam dynam dynam dynam sloven sloven swed swed swed russia russia russia russia mich mich scor scor scor scor scor scor scor scor scor scor scor scor scor scor scor scor scor scor scor scor scor scor scor scor scor bulgar bulgar greec match georg georg rapid rapid andrei andrei goal goal qualif qualif qualif qualif qualif qualif qualif barry barry barry barry republ uefa uefa hung collat collat buchar buchar buchar buchar buchar richard partiz belgrad leg leg yugoslav yugoslav remus ganea mursk sobot mura lyngb lyngb tody jonsson odess odess chornomoret chornomoret chornomoret hjk igor igor chumachenk mizin krakow krakow krakow hutnik hutnik hutnik sigm sigm olomunec mouss cup cup yahay stolarz dariusz romuzg kovar cska cska cska akran akran finland finland finland movsesy ferrer leonid edgar yankausk hognasson torped torped hajduk ukrain ukrain croat croat kamoltsev vostrosablin spartak spartak zagreb helsink switzerland switzerland switzerland melyoshin austr austr austr dmitr belarus belarus belarus alenichev trabzon scotland scotland trabzonspor trabzonspor slov hami mandiral shot arveladz orhan cikrikc denmark denmark abdullah ercan szilard penalt penalt penalt penalt penalt neme tallin lantan eston aarau aarau juri lebrecht urma poland poland hepn st st st st st sofia sofia sofia sofia lokomotiv butoiu novi sad vojvodin vojvodin gak gak graz graz graz warsaw warsaw warsaw stojak ramusch marcin sabitz weig anicic molodechn dinam round round minsk minsk helsingborg helsingborg roland nils mahmus pringl valkeakosk haka haka nation nation legia legia legia czech vallu popovit socc socc mieciel time pori fc fc fc fc fc extr jazz jazz tomi levo jokimak kobelev sergei artemov skopj vardar macedon halmstad halmstad nilsson malm malm malm malm skont skont latvia nicl kindval stepanov moscow moscow moscow moscow moscow moscow moscow moscow moscow moscow istanbul besikt besikt oktay derelioglu brian ertugrul sagl nicos nicos turkey turkey turkey apoel apoel apoel irakl irakl thessalonik alexandrou won won won won won won won won won won won won won won won won won won won andro sotiriou stefano porbok neuchatel neuchatel neuchatel neuchatel anorthos famagust liazid sandjak pier cypri alain verny innsbruck tirol tirol tirol slavia slavia maciej slivovsk gernot jean wal krin kitzbichl sacharjev sheitanov aberdeen aberdeen aberdeen aberdeen zalgir zalgir minut minut vilnius lithuan irvin grhzvyd mikulen puklevicius glasgow town celtic celtic alex kosic result result jorg cadet odens odens odens sliem wander budap budap vasut vasut pike gorm evan egress roman slovak slovak rule split bratislav bratislav halftim martin
2645	GCAT GSPO	early tommy reach reach club club star back back tuesday tuesday van live german michael manag crack aggreg aggreg lead portugu world jan show pull end edg andre finish scot side net head match visit visit award organ strik delight book book fail crowd crowd play play play final final final link put want struggl gave burst run karol break driv qualif qualif barry barry barry doubt young ambit set uefa uefa uefa hung hung hung surpr thom angry ball leg leg leg refer send send send foul hold fire capac cup cup cup cup look tie tie target soar offent gap spot drill shot shot straight denmark mill penalt penalt penalt penalt penalt franc wat cool knock lost lost st home home home home badly round round round round leagu push hour hour win win socc time time fc extr scar corn corn area area ground burn miss made made arriv london trip forc forc brian compet won attack half kick step pier field wal aberdeen aberdeen aberdeen aberdeen dead zalgir zalgir zalgir minut minut minut minut minut minut minut vilnius vilnius trail lithuan men irvin irvin grhzvyd mikulen mikulen mikulen puklevicius travel glasgow glasgow plac celtic celtic celtic celtic celtic celtic town kosic kosic kosic result result result jorg jorg cadet cadet reduc budap vasut joe fright minnow coach coach friday sick absent slovak slick angl dramat devast urgent blund morn spotkick amend seem hit tens mort season prazen prazen late late swept wieghorst scorelin toast thrill thrill shoot onslaught slot bognar zolt bukszeg intertot intertot karlsruh guingamp silkeborg top bordeau bayern munich kozak paol di ham canio hooydonk captain clear struck draw
2646	GCAT GSPO	fire ball struck feel tuesday tuesday hard saturday tabl year year rain start sheffield sheffield club youngst youngst leed leed leed leed leed richie humphrey humphrey humphrey andy booth booth aston unit road vill rush rush sod elland pleat yorkshir prid domest loan bowy bowy regi straight blink blink dutchm nigel martyn injur strid huddersfield lee lee ian vict pair hateley debut frands appear suff home home stun fell bolton toppl manchest burnd david show show million million compr shot open give edg win win time leagu leagu danish reason socc past side head effort city engl premy premy strik move net pound sharp put favourit divid wond gave gave minut wednesday wednesday titl goal goal fellow town account intern men men boy foot battl season perfect sweet make allow teen park creat top mark mark hold left left block
2647	GCAT GSPO	attend attend tuesday halftim sheffield leed richie andy booth humphr unavail sum sum leagu leagu socc engl engl premy premy match match minut wednesday add
2648	GCAT GSPO	preston cambridg read tuesday cup cup york sheffield sheffield leed unit west lincoln huddersfield bolton manchest footbal brentford plymouth cardiff northampton carlisl chest colchest round bromwich darlington rotherham doncast exet barnet hartlepool leagu leagu leagu chesterfield hereford wrexham hull scarborough ipswich bournemouth luton socc socc bristol bristol rove mansfield burnley not bury oldham grimsb oxford norwich vale portsmouth leyton city city engl engl wycomb rochdal barnsley scunthorp blackpool premy bradford southend fulham stockport swansea orient match gillingham swindon wolverhampton torquay walsal watford wigan divid result result wednesday crew port leg count
2649	GCAT GSPO	early recent claus claus tuesday tuesday tuesday sunday year team receiv disappoint talent agree club select select select select forward sympath report meet meet decid england england rest rest rest futur test test overse assur party control control give give commit commit cricket cricket cricket cricket streamlin deep work engl engl man move move move match match play play play play play chief acfield acfield acfield acfield lord put hierarch ear depth tccb tim basi lamb propos ban day includ great great board board reject reject reject intern request throw withdraw chairm recommend know heart heart execut top ord count count count count trial
2650	GCAT GSPO	bratislav bratislav martin attend attend attend attend attend attend attend attend attend attend attend attend attend attend attend attend tuesday uefa uefa buchar buchar buchar buchar buchar halftim partiz cup cup belgrad yugoslav yugoslav remus ganea mursk sobot mura lyngb lyngb tody jonsson odess odess chornomoret chornomoret chornomoret hjk igor chumachenk mizin krakow krakow krakow hutnik hutnik hutnik sigm sigm powel olomunec mouss scotland scotland yahay finland stolarz dariusz ukrain ukrain romuzg kovar cska cska cska akran akran switzerland switzerland switzerland movsesy austr austr austr ferrer belarus belarus leonid edgar yankausk hognasson penalt penalt penalt penalt torped torped st st st st helsink hajduk croat croat kamoltsev vostrosablin spartak spartak zagreb melyoshin dmitr alenichev trabzon trabzonspor trabzonspor poland slov denmark denmark hami mandiral shot arveladz aggreg aggreg aggreg aggreg aggreg aggreg aggreg aggreg aggreg aggreg aggreg aggreg aggreg aggreg aggreg aggreg aggreg aggreg orhan cikrikc round round abdullah ercan nation nation szilard neme iceland malt tallin lantan russia russia russia time eston aarau aarau cyprus swed juri lebrecht urma sloven sloven extr hepn sofia sofia sofia sofia lokomotiv socc socc butoiu novi sad vojvodin vojvodin czech gak gak graz graz graz stojak ramusch sabitz weig anicic molodechn dinam minsk helsingborg helsingborg roland nils mahmus pringl mich mich won won won won won won won won won won won won won won match bulgar bulgar fc fc fc fc georg georg moscow moscow moscow moscow moscow moscow moscow moscow scor scor scor scor scor scor scor scor scor scor scor scor scor scor scor scor scor scor scor turkey turkey brian jean minut minut result result rapid rapid neuchatel neuchatel neuchatel neuchatel anorthos goal goal famagust liazid town sandjak pier wal cypri alain verny innsbruck tirol tirol tirol slavia slavia maciej slivovsk gernot krin kitzbichl sacharjev sheitanov rule aberdeen aberdeen aberdeen aberdeen barry barry barry barry zalgir zalgir andrei andrei vilnius lithuan irvin qualif qualif qualif qualif qualif qualif grhzvyd mikulen puklevicius slovak slovak republ glasgow celtic celtic kosic jorg cadet odens odens odens richard sliem wander roman leg leg budap budap hung vasut vasut pike gorm evan egress split
2651	GCAT GSPO	draw back french griffin cup german colin ukrain michael michael michael nigel home world face ireland ireland party recal recal jim leagu phil phil august socc friend premy man hunt strik exper play miss georg northern northern pat rang gray gray gray neill neill neill base lennon lennon lennon squad squad squad belfast neil neil leicest coventr stev stev hill morrow arsen mcdonald queen fet aidan davison danny worthington rowland mcgibbon loma magilton mcmahon gillespie hugh iain plac dowie boyl intern gerard barry qualif park alan alan keith keith
2652	GCAT GSPO	bring bring evident grav tuesday tuesday illeg illeg rank drug drug drug drug drug fast game game game prohibit safet year guilt guilt potent start april wint suspend yorkshir report stat stat penalt tell england administ law test test test test class class hour case case ve monday public identif commit commit commit prov cricket cricket cricket cricket cricket engl engl man tour fact match match play play play play hear hear pakist take take posit posit posit appeal put absolut claim risk tccb tccb tccb drink bar ban ban breach kent day minut charg regulat prev effect fellow accept accept reject board board board account sussex sussex cocain cocain cocain ed giddin giddin giddin demand bowl bowl jurisdict prohib prohib prohib urin sampl found found knowl behav disreput disreput gid gid gid adjourn whisk stemp stemp season explan inadvert tolerat indulg impos spik richard offic count count subst subst subst subst
2653	GCAT GSPO	tuesday illeg drug april april wint suspend suspend england test test test cricket cricket cricket tour match match play hear pakist posit posit kent board sussex ed giddin giddin jurisdict pacem count count subst
2654	GCAT GSPO	early money union union union union rugby rugby rugby rugby rugby rugby month game year year come club club join join join nigel janu code code code leagu leagu finish return return champ cent engl engl numb london man play play wigan wigan direct divid black power combin due late season make switch tuigamal tuigamal wasp wasp wasp aiga melvill sign va bit
2655	GCAT GSPO	malivai excit patrick hotly wimbledon matchup straightaway unbelief topspin medal lob ailment back back back inclin meadow sampr coury hard supe skip record spaniard rank rank rank rank rank rank rank must bye month game game game game game game begin year year ahead nerv start point point toront toront spain spain albert flush franc franc tenth week capit carlo error michael austr meet italy decid lead pair canad canad canad canad world world defend rest rally andr european european shot open open open open open open career round round round long nation monday jim didn gold win time time contest row extend respect olymp olymp cent champ surfac lose austral austral austral tod washington washington tour court servic lucky match match won won play play play play play play play play play play play tentat event take doubl doubl doubl doubl doubl ten ten cost date save tourna tourna tourna americ americ seed seed seed seed seed seed seed seed july andrea day minut break break break break break upset upset unseed unseed field atp ready forget forget forget forget pass raft agass sixth sixth hate eighth chang chang hit late alex set set set set set set set need perfect regul featur thom singl partn partn pete coupl aggress fault woodbridg woodbridg woodbridg woodbridg woodbridg woodbridg woodbridg woodford woodford woodford woodford woodford woodford woodford compatriot doubt top top top top defeat defeat surviv arnaud mark mark mark advant boetsch gaudenz ord hold berasategui dispatch filip dewulf belg beat beat beat corretj corretj corretj corretj corretj guy
2656	GCAT GSPO	patrick sanchez clavet mauricio hadad sebasti sebasti chri lareau jocelyn robichaud woodruff leblanc vacek bernd karbach javy drap mikael tillstrom joern renzenbrink carraz german german baham spain spain spain spain spain greg albert franc franc franc carlo italy canad canad canad canad canad open open round monday daniel swed colomb czech austral austral austral austral francisc tod numb scot ten ten cost tourna prefix denot seed andrea result result forget raft knowl alex republ woodbridg woodford mark mark arnaud boetsch gaudenz berasategui filip dewulf belg beat beat beat beat beat beat beat beat beat beat beat beat corretj guy
2657	GCAT GSPO	bring recent tuesday tuesday union union union rugby rugby rugby rugby rugby rugby rugby rugby peac game race countr sport sport sport newspap form manag manag defus defus tshwet tshwet tshwet sarfu sarfu sarfu sarfu sarfu deal riaan oberholz bailey turmoil percept trap twilight critis afric afric afric afric slam produc meet strong mix sas footbal support talk weekend remain reserv imag imag fan public disadvant past made told focus foundat effort minist minist depart match play play play critic critic take chief new direct program south south south south develop develop develop develop link exclud stev commun plan day black black great dominat flag satisf whit whit whit strateg make recogn execut confer wav
2658	GCAT GSPO	incid situat tuesday month cup cup countr year year safet declar north club club quart afric afric afric afric afric pretor pretor alger alger alger alger cr belouizdad confed footbal face pull win socc side safe forc city city compet match match host play play fine south final travel concern septemb secur refus refus due withdraw fear leg
2659	GCAT GSPO	refer amend amend gener tuesday sentenc drug drug drug drug high high body body body body month month month game sport sport year ahead start sydney punish free caught suspend usual italy meet atlant atlant atlant atlant atlant atlant carl decid decid decid athlet athlet athlet athlet athlet athlet athlet athlet athlet sprint iaaf iaaf iaaf iaaf iaaf iaaf iaaf amateur jump jump cheat istv world world gyulai gyulai gyulai gyulai italian italian central dope dean capobianc capobianc capobianc capobianc capobianc antonel junior bevilacqua bevilacqua bevilacqua bevilacqua david lodg steroid federat federat stanozolol test test test test hengel ephedrin face panel mistak arbitr arbitr cas cas cas watertight case case case case nation nation abid secret bind dutch princ mont consid current conclud pow respect return return olymp olymp olymp commit sue told champ cite austral austral austral tribun senior stimul compet compet compet strip court court hear hear fail appeal posit posit new final ban ban ban ban result flaw charg ask wednesday cancel town intern intern held chang due rule rule rule rule rule process process dismit meant impos add allow allow fear presid confer fourth assum offic
2660	GCAT GSPO	tuesday rank rank month month cup cup cup team team team team team team team captain captain captain select select select greg spot unit free graham automat automat week afric stat expect expect lead confirm decid name chas world world world pric david nick european face open challeng nominat time allenb allenb allenb thomson thomson thomson thomson thomson thomson thomson wayn riley riley riley ryd jumb jumb ozak ozak invitat elkington zimbabw replac ernie els champ golf austral austral austral austral senior senior senior numb washington man won play play play play play hear event inaugur south americ final stev septemb plac fellow fellow fellow intern intern intern brit japan styl robert make featur pete pete presid presid norm top choic
2661	GCAT GSPO	early early carry mexic carlo back back bottom record record high low team ahead streak streak streak york treat lead lead lead lead lead vict vict vict vict didn didn leav leav florid career career career career career give case end monday drop chicag august scor scor scor tim scot scot fletch fletch fletch pirat san san san francisc strik strik king brown brown brown larry sharp play play cincinnat final opposit sixth sixth coast put gave gave gave led earn day stol relief relief run run run run run run run run run run run run run run run run run run los angel rob defeat includ basebal barry held whit bond bond bond bond major aver throw throw set martinez allow allow allow allow allow add add ball walk walk walk walk walk walk walk tru sunday night stay portug slam slam slam slam blast blast tie game game game game game game game game game game game game game receiv sleep grand grand grand grand start pair red shot error straight west suff complet ken induc caminit caminit caminit caminit caminit padr padr padr padr expo expo expo home home home home home home home home home home home home home dodg inn inn inn inn inn inn inn sand sand sand sand seventh seventh seventh seventh montreal montreal dehydr plat think monterrey darrin anytim honest leagu leagu cheer strikeout pedr idl dave silvestr dieg dieg kevin nation win devon marlin cub cub cub nen out tod time time time amaur telemac should stiff sammy met met met sosa ryn past past sandberg houston houston hunt hunt sean berry ramon lose lose morel astro astro astro squeak pittsburgh pittsburgh alvin cent morm solo solo jeff loss loss loss basem charlie hay forc marvin brian benard tying tom lampkin rod beck beck won won ninth bernard wond doubl doubl doubl gilkey gilkey hundley baerg homer half harnisch weiss rbi lift colorad colorad rocky rub thompson field field load save save base base walt giant snap post great great wall combin board hit hit hit hit hit hit hit hit hit hit hit hit hit hit hit hit hit hit hit know season season notch drov drov drov gary singl singl singl singl singl pete fourth pitch pitch pitch pitch mark mark sheffield struck sery sery draw
2662	GCAT GSPO	texa texa tuesday tuesday game game game schedul schedul york york york york toront toront stand stand percent lost atlant atlant st st loui loui detroit detroit florid florid kans kans boston boston nation dieg dieg monday monday win leagu leagu leagu leagu chicag chicag chicag chicag august august cent cent san san san san francisc francisc western western montreal montreal city city won play houston houston americ pittsburgh pittsburgh divid divid divid divid divid divid cincinnat cincinnat colorad colorad tabulat eastern eastern gb gb major major baltimor baltimor cleveland cleveland los los minnesot minnesot angel angel milwauk milwauk seattl seattl oakland oakland philadelph philadelph basebal basebal californ californ pct pct
2663	GCAT GSPO	texa cap game team york york toront home detroit florid kans boston nation dieg monday monday leagu leagu leagu leagu chicag chicag san san francisc montreal city play houston americ pittsburgh result result cincinnat colorad major major cleveland minnesot milwauk seattl basebal basebal californ
2664	GCAT GSPO	prid hot record high high albert william william rock streak streak streak york york york sacrific sacrific jack crack lead lead lead lead lead lead lead lead vict vict vict vict vict tripl tripl twin twin gain kerry career career rally give roge monday edg chicag chicag scor tim sweep attract city danny pound pound cart cart final sixth put put rang rang rang mat americ divid divid gave led rout relief run run run run run run run run run run run run run run run run run angel angel angel septemb bat bat basebal blu guy californ californ marin marin whit whit perfect major major major major throw set set indian indian indian indian indian martinez martinez allow add add add ball hope walk walk stay fly fly brew brew tie game game game game game game game game game game game game game game game game toront toront dean red red red shot shot error greg roll west complet complet knock lost lost st loui surpass meet boston boston boston boston sav home home home home home home home home home home home inn inn inn inn inn inn inn inn inn kans seventh seventh detroit plat plat leagu leagu leagu leagu leagu leagu row row open win win win time fan lose lose lose pat prevent cent solo jeff bell bell bell loss charlie work juan tying won won won won won won won ninth ninth ninth ninth improv homer rbi rbi rbi rbi rocky field field save cleveland minnesot milwauk royal seattl seattl seattl seattl gonzalez pavlik pavlik pavlik palm thing en hentgen tonight person colavit mcdowel cardin pettit pettit alex derek consecut consecut jete jorg yankee yankee yankee yankee snap snap snap snap cecil tino bernie rafael cormon jay jay combin buhn buhn joe rodriguez stad troy leary leary sox sox sox sox reggie jefferson lacy unearn heathcliff slocumb salmon fabreg ozzie battl hit hit hit hit hit hit hit hit hit hit hit hit hit hit hit guill season season season season tartabull drov drov singl singl singl tige tige tige tige norton enter outscor curt andujar ceden featur brien woody amic marc newfield belt split pitch pitch pitch pitch pitch texa texa mark ham cap struck sery sery sery sery sery andy draw
2665	GCAT GSPO	acquir acquir clear back back back bolst alleg rumor star cap cap kg bottom game stag begin own room sun sun sun sun sun rebound rebound team team team nba nba nba nba fame fame basketbal basketbal barkley barkley barkley barkley barkley barkley barkley barkley barkley barkley barkley barkley dall potent agent agent agent crush phoenix phoenix phoenix phoenix horry horry horry york cassel cassel cassel point point bryant bryant hist burly club incompar hakeem forward forward manag line olajuwon olajuwon superstar good clyd drexl drexl drexl deal deal deal will further free free free join les alexand ers key jord salar nugget michael tamp maverick knick fit lost lost confirm quest induc million million shot shot end end career career career career career monday gold win win win leagu leagu time rocket rocket rocket rocket rocket rocket reserv chicag sam short off pow finish hall hall olymp met met told cent champ champ champ champ effort quick ago ago won won won play play play play play play play kevin brown brown pound period new new new ll lifetim shop final final final houston houston houston houston dream problem valu led charl thing accompl want want regulat titl titl titl involut pass chanc chanc reject rebuild guard guard memb chuck subject combin aver foot foot robert philadelph philadelph season season season season season season season don make make allow bull indian franchis confer confer pace mark opportun origin denv sign left trad trad trad trad trad trad trad trad coach sought
2666	GCAT GSPO	small tuesday french french uefa uefa uefa reach reach cup cup cup cup cup cup intertot promot year guingamp guingamp guingamp guingamp guingamp pari club club tie join knock rotor volgograd stephan carnot st brittan populat monac metz home len montpel auxer germain nime european round win win leagu contest fan attract socc corn side champ compet match match won ago play russian scor crowd direct final kick divid divid minut goal town remark eighth rule season season qualif qualif leg leg beat
2667	GCAT GSPO	tuesday lausan swiss swiss socc premy premy match play divid divid result result zurich
2668	GCAT GSPO	refer life draw draw tuesday clos game stag marc room start amsterdam van penalt scuffl scuffl feyenoord feyenoord feyenoord roda roda rotterdam jc kerkrad kerkrad midfield open kee wonder roelofs linesm ajax nac dutch bred leagu socc socc side champ match play scor equal minut minut wednesday involut lacklustr season dress campaign left sign
2669	GCAT GSPO	attend tuesday halftim germ germ st scharp sum sum armin bielefeld studtruck eign baeron frii hans hans spoerl pen socc socc ivanausk freiburg decheiv werd hofschneid og rostock akpoborie schalk boruss moenchengladbach match match play divid divid paul brem minut hamburg
2670	GCAT GSPO	tuesday germ germ st armin bielefeld hans socc socc freiburg werd rostock schalk boruss moenchengladbach match match play divid divid paul brem result result hamburg
2671	GCAT GSPO	tuesday feyenoord roda rotterdam jc kerkrad dutch dutch socc socc match play divid divid result result
2672	GCAT GSPO	fire grab grab liber refer tuesday uefa uefa game cup cup cup intertot intertot karlsruh karlsruh karlsruh karlsruh karlsruh rebound ahead come german german standard spot pile moment st penalt vict home level european aggreg midfield midfield sum give win win win win win time belgian swed socc pressur champ head complain lieg lieg substitut axel haessl lawar manfr bend bend markus schroth chaot and frisk didy ernst play hell biscont scor scor put put tourna final minut minut minut minut minut minut minut minut goal dying plac cancel dramat robert need thom leg belg guy
2673	GCAT GSPO	attend attend tuesday uefa uefa uefa uefa uefa halftim halftim halftim cup cup cup cup cup cup cup intertot intertot intertot karlsruh karlsruh karlsruh karlsruh guingamp guingamp silkeborg silkeborg silkeborg pari club german standard standard franc rotor volgograd stephan carnot st penalt croat denmark aggreg aggreg aggreg russia win win win socc lieg lieg axel haessl lawar manfr bend markus schroth won segest sisak scor scor scor fuad sasivarev final final result goal plac rule due qualif qualif qualif qualif thom leg clinch belg
2674	GCAT GSPO	tuesday clos rank rank cup captain greg colin scotland ill germ germ germ local ian world mean european open open drop secret weekend win ryd finish replac ernie els champ golf golf head entry jame montgomerie montgomerie montgomerie montgomerie troon woosnam bernhard lang seve ballestero challeg favourit royal includ brit withdraw withdraw set absent norm father father
2675	GCAT GSPO	follow limit awar repair incid correct attend motor feel situat fin foul tuesday spaniard body fast month race race sport year safet safet team lake fall stand view good offent colin lenient list finland seek repeat suspend suspend suspend suspend carlo issu issu slight lost meet meet pay ken injur lead decid govern penalt world world world world world big big rally rally david futur shar ensur round round control weekend increas consid time time area area area area swed rais fan car pressur confid champ champ champ work continu scot servic servic servic servic won take event fail posit excess speed argentin argentin fine fine fine direct outcom mcr mcr mcr mcr mcr mcr mcr mcr mcr lot lot lot coll spectat spectat spectat fia fia fia fia extenu circumst hurry kph apologis admit ban ban wand strict council council adhes makkin sainz eriksson hap subaru break tom relief driv person great regulat regulat plac plac plac exceed sixth secur mosley mosley mosley rout competit rule add allow escap escap presid richard fourth max thought hope hang
